ARM GAS  C:\Users\Yasi\AppData\Local\Temp\ccrj17Ii.s 			page 1


   1              		.cpu cortex-m0
   2              		.arch armv6s-m
   3              		.fpu softvfp
   4              		.eabi_attribute 20, 1
   5              		.eabi_attribute 21, 1
   6              		.eabi_attribute 23, 3
   7              		.eabi_attribute 24, 1
   8              		.eabi_attribute 25, 1
   9              		.eabi_attribute 26, 1
  10              		.eabi_attribute 30, 1
  11              		.eabi_attribute 34, 0
  12              		.eabi_attribute 18, 4
  13              		.file	"stm32c0xx_hal_timebase_tim.c"
  14              		.text
  15              	.Ltext0:
  16              		.cfi_sections	.debug_frame
  17              		.file 1 "Core/Src/stm32c0xx_hal_timebase_tim.c"
  18              		.global	__aeabi_uidiv
  19              		.section	.text.HAL_InitTick,"ax",%progbits
  20              		.align	1
  21              		.global	HAL_InitTick
  22              		.syntax unified
  23              		.code	16
  24              		.thumb_func
  26              	HAL_InitTick:
  27              	.LVL0:
  28              	.LFB214:
   1:Core/Src/stm32c0xx_hal_timebase_tim.c **** /* USER CODE BEGIN Header */
   2:Core/Src/stm32c0xx_hal_timebase_tim.c **** /**
   3:Core/Src/stm32c0xx_hal_timebase_tim.c ****   ******************************************************************************
   4:Core/Src/stm32c0xx_hal_timebase_tim.c ****   * @file    stm32c0xx_hal_timebase_tim.c
   5:Core/Src/stm32c0xx_hal_timebase_tim.c ****   * @brief   HAL time base based on the hardware TIM.
   6:Core/Src/stm32c0xx_hal_timebase_tim.c ****   ******************************************************************************
   7:Core/Src/stm32c0xx_hal_timebase_tim.c ****   * @attention
   8:Core/Src/stm32c0xx_hal_timebase_tim.c ****   *
   9:Core/Src/stm32c0xx_hal_timebase_tim.c ****   * Copyright (c) 2024 STMicroelectronics.
  10:Core/Src/stm32c0xx_hal_timebase_tim.c ****   * All rights reserved.
  11:Core/Src/stm32c0xx_hal_timebase_tim.c ****   *
  12:Core/Src/stm32c0xx_hal_timebase_tim.c ****   * This software is licensed under terms that can be found in the LICENSE file
  13:Core/Src/stm32c0xx_hal_timebase_tim.c ****   * in the root directory of this software component.
  14:Core/Src/stm32c0xx_hal_timebase_tim.c ****   * If no LICENSE file comes with this software, it is provided AS-IS.
  15:Core/Src/stm32c0xx_hal_timebase_tim.c ****   *
  16:Core/Src/stm32c0xx_hal_timebase_tim.c ****   ******************************************************************************
  17:Core/Src/stm32c0xx_hal_timebase_tim.c ****   */
  18:Core/Src/stm32c0xx_hal_timebase_tim.c **** /* USER CODE END Header */
  19:Core/Src/stm32c0xx_hal_timebase_tim.c **** 
  20:Core/Src/stm32c0xx_hal_timebase_tim.c **** /* Includes ------------------------------------------------------------------*/
  21:Core/Src/stm32c0xx_hal_timebase_tim.c **** #include "stm32c0xx_hal.h"
  22:Core/Src/stm32c0xx_hal_timebase_tim.c **** #include "stm32c0xx_hal_tim.h"
  23:Core/Src/stm32c0xx_hal_timebase_tim.c **** 
  24:Core/Src/stm32c0xx_hal_timebase_tim.c **** /* Private typedef -----------------------------------------------------------*/
  25:Core/Src/stm32c0xx_hal_timebase_tim.c **** /* Private define ------------------------------------------------------------*/
  26:Core/Src/stm32c0xx_hal_timebase_tim.c **** /* Private macro -------------------------------------------------------------*/
  27:Core/Src/stm32c0xx_hal_timebase_tim.c **** /* Private variables ---------------------------------------------------------*/
  28:Core/Src/stm32c0xx_hal_timebase_tim.c **** TIM_HandleTypeDef        htim1;
  29:Core/Src/stm32c0xx_hal_timebase_tim.c **** /* Private function prototypes -----------------------------------------------*/
  30:Core/Src/stm32c0xx_hal_timebase_tim.c **** /* Private functions ---------------------------------------------------------*/
ARM GAS  C:\Users\Yasi\AppData\Local\Temp\ccrj17Ii.s 			page 2


  31:Core/Src/stm32c0xx_hal_timebase_tim.c **** 
  32:Core/Src/stm32c0xx_hal_timebase_tim.c **** /**
  33:Core/Src/stm32c0xx_hal_timebase_tim.c ****   * @brief  This function configures the TIM1 as a time base source.
  34:Core/Src/stm32c0xx_hal_timebase_tim.c ****   *         The time source is configured  to have 1ms time base with a dedicated
  35:Core/Src/stm32c0xx_hal_timebase_tim.c ****   *         Tick interrupt priority.
  36:Core/Src/stm32c0xx_hal_timebase_tim.c ****   * @note   This function is called  automatically at the beginning of program after
  37:Core/Src/stm32c0xx_hal_timebase_tim.c ****   *         reset by HAL_Init() or at any time when clock is configured, by HAL_RCC_ClockConfig().
  38:Core/Src/stm32c0xx_hal_timebase_tim.c ****   * @param  TickPriority: Tick interrupt priority.
  39:Core/Src/stm32c0xx_hal_timebase_tim.c ****   * @retval HAL status
  40:Core/Src/stm32c0xx_hal_timebase_tim.c ****   */
  41:Core/Src/stm32c0xx_hal_timebase_tim.c **** HAL_StatusTypeDef HAL_InitTick(uint32_t TickPriority)
  42:Core/Src/stm32c0xx_hal_timebase_tim.c **** {
  29              		.loc 1 42 1 view -0
  30              		.cfi_startproc
  31              		@ args = 0, pretend = 0, frame = 32
  32              		@ frame_needed = 0, uses_anonymous_args = 0
  33              		.loc 1 42 1 is_stmt 0 view .LVU1
  34 0000 00B5     		push	{lr}
  35              	.LCFI0:
  36              		.cfi_def_cfa_offset 4
  37              		.cfi_offset 14, -4
  38 0002 89B0     		sub	sp, sp, #36
  39              	.LCFI1:
  40              		.cfi_def_cfa_offset 40
  41 0004 0100     		movs	r1, r0
  43:Core/Src/stm32c0xx_hal_timebase_tim.c ****   RCC_ClkInitTypeDef    clkconfig;
  42              		.loc 1 43 3 is_stmt 1 view .LVU2
  44:Core/Src/stm32c0xx_hal_timebase_tim.c ****   uint32_t              uwTimclock = 0;
  43              		.loc 1 44 3 view .LVU3
  44              	.LVL1:
  45:Core/Src/stm32c0xx_hal_timebase_tim.c ****   uint32_t              uwPrescalerValue = 0;
  45              		.loc 1 45 3 view .LVU4
  46:Core/Src/stm32c0xx_hal_timebase_tim.c ****   uint32_t              pFLatency;
  46              		.loc 1 46 3 view .LVU5
  47:Core/Src/stm32c0xx_hal_timebase_tim.c ****   /*Configure the TIM1 IRQ priority */
  48:Core/Src/stm32c0xx_hal_timebase_tim.c ****   HAL_NVIC_SetPriority(TIM1_BRK_UP_TRG_COM_IRQn, TickPriority ,0);
  47              		.loc 1 48 3 view .LVU6
  48 0006 0022     		movs	r2, #0
  49 0008 0D20     		movs	r0, #13
  50              	.LVL2:
  51              		.loc 1 48 3 is_stmt 0 view .LVU7
  52 000a FFF7FEFF 		bl	HAL_NVIC_SetPriority
  53              	.LVL3:
  49:Core/Src/stm32c0xx_hal_timebase_tim.c ****   /* Enable the TIM1 global Interrupt */
  50:Core/Src/stm32c0xx_hal_timebase_tim.c ****   HAL_NVIC_EnableIRQ(TIM1_BRK_UP_TRG_COM_IRQn);
  54              		.loc 1 50 3 is_stmt 1 view .LVU8
  55 000e 0D20     		movs	r0, #13
  56 0010 FFF7FEFF 		bl	HAL_NVIC_EnableIRQ
  57              	.LVL4:
  51:Core/Src/stm32c0xx_hal_timebase_tim.c **** 
  52:Core/Src/stm32c0xx_hal_timebase_tim.c ****   /* Enable TIM1 clock */
  53:Core/Src/stm32c0xx_hal_timebase_tim.c ****   __HAL_RCC_TIM1_CLK_ENABLE();
  58              		.loc 1 53 3 view .LVU9
  59              	.LBB2:
  60              		.loc 1 53 3 view .LVU10
  61              		.loc 1 53 3 view .LVU11
  62 0014 134B     		ldr	r3, .L5
ARM GAS  C:\Users\Yasi\AppData\Local\Temp\ccrj17Ii.s 			page 3


  63 0016 1A6C     		ldr	r2, [r3, #64]
  64 0018 8021     		movs	r1, #128
  65 001a 0901     		lsls	r1, r1, #4
  66 001c 0A43     		orrs	r2, r1
  67 001e 1A64     		str	r2, [r3, #64]
  68              		.loc 1 53 3 view .LVU12
  69 0020 1B6C     		ldr	r3, [r3, #64]
  70 0022 0B40     		ands	r3, r1
  71 0024 0193     		str	r3, [sp, #4]
  72              		.loc 1 53 3 view .LVU13
  73 0026 019B     		ldr	r3, [sp, #4]
  74              	.LBE2:
  75              		.loc 1 53 3 view .LVU14
  54:Core/Src/stm32c0xx_hal_timebase_tim.c **** 
  55:Core/Src/stm32c0xx_hal_timebase_tim.c ****   /* Get clock configuration */
  56:Core/Src/stm32c0xx_hal_timebase_tim.c ****   HAL_RCC_GetClockConfig(&clkconfig, &pFLatency);
  76              		.loc 1 56 3 view .LVU15
  77 0028 02A9     		add	r1, sp, #8
  78 002a 03A8     		add	r0, sp, #12
  79 002c FFF7FEFF 		bl	HAL_RCC_GetClockConfig
  80              	.LVL5:
  57:Core/Src/stm32c0xx_hal_timebase_tim.c **** 
  58:Core/Src/stm32c0xx_hal_timebase_tim.c ****   /* Compute TIM1 clock */
  59:Core/Src/stm32c0xx_hal_timebase_tim.c ****   uwTimclock = HAL_RCC_GetPCLK1Freq();
  81              		.loc 1 59 3 view .LVU16
  82              		.loc 1 59 16 is_stmt 0 view .LVU17
  83 0030 FFF7FEFF 		bl	HAL_RCC_GetPCLK1Freq
  84              	.LVL6:
  60:Core/Src/stm32c0xx_hal_timebase_tim.c **** 
  61:Core/Src/stm32c0xx_hal_timebase_tim.c ****   /* Compute the prescaler value to have TIM1 counter clock equal to 1MHz */
  62:Core/Src/stm32c0xx_hal_timebase_tim.c ****   uwPrescalerValue = (uint32_t) ((uwTimclock / 1000000U) - 1U);
  85              		.loc 1 62 3 is_stmt 1 view .LVU18
  86              		.loc 1 62 46 is_stmt 0 view .LVU19
  87 0034 0C49     		ldr	r1, .L5+4
  88 0036 FFF7FEFF 		bl	__aeabi_uidiv
  89              	.LVL7:
  90              		.loc 1 62 20 view .LVU20
  91 003a 431E     		subs	r3, r0, #1
  92              	.LVL8:
  63:Core/Src/stm32c0xx_hal_timebase_tim.c **** 
  64:Core/Src/stm32c0xx_hal_timebase_tim.c ****   /* Initialize TIM1 */
  65:Core/Src/stm32c0xx_hal_timebase_tim.c ****   htim1.Instance = TIM1;
  93              		.loc 1 65 3 is_stmt 1 view .LVU21
  94              		.loc 1 65 18 is_stmt 0 view .LVU22
  95 003c 0B48     		ldr	r0, .L5+8
  96 003e 0C4A     		ldr	r2, .L5+12
  97 0040 0260     		str	r2, [r0]
  66:Core/Src/stm32c0xx_hal_timebase_tim.c **** 
  67:Core/Src/stm32c0xx_hal_timebase_tim.c ****   /* Initialize TIMx peripheral as follow:
  68:Core/Src/stm32c0xx_hal_timebase_tim.c **** 
  69:Core/Src/stm32c0xx_hal_timebase_tim.c ****   + Period = [(TIM1CLK/1000) - 1]. to have a (1/1000) s time base.
  70:Core/Src/stm32c0xx_hal_timebase_tim.c ****   + Prescaler = (uwTimclock/1000000 - 1) to have a 1MHz counter clock.
  71:Core/Src/stm32c0xx_hal_timebase_tim.c ****   + ClockDivision = 0
  72:Core/Src/stm32c0xx_hal_timebase_tim.c ****   + Counter direction = Up
  73:Core/Src/stm32c0xx_hal_timebase_tim.c ****   */
  74:Core/Src/stm32c0xx_hal_timebase_tim.c ****   htim1.Init.Period = (1000000U / 1000U) - 1U;
  98              		.loc 1 74 3 is_stmt 1 view .LVU23
ARM GAS  C:\Users\Yasi\AppData\Local\Temp\ccrj17Ii.s 			page 4


  99              		.loc 1 74 21 is_stmt 0 view .LVU24
 100 0042 0C4A     		ldr	r2, .L5+16
 101 0044 C260     		str	r2, [r0, #12]
  75:Core/Src/stm32c0xx_hal_timebase_tim.c ****   htim1.Init.Prescaler = uwPrescalerValue;
 102              		.loc 1 75 3 is_stmt 1 view .LVU25
 103              		.loc 1 75 24 is_stmt 0 view .LVU26
 104 0046 4360     		str	r3, [r0, #4]
  76:Core/Src/stm32c0xx_hal_timebase_tim.c ****   htim1.Init.ClockDivision = 0;
 105              		.loc 1 76 3 is_stmt 1 view .LVU27
 106              		.loc 1 76 28 is_stmt 0 view .LVU28
 107 0048 0023     		movs	r3, #0
 108              	.LVL9:
 109              		.loc 1 76 28 view .LVU29
 110 004a 0361     		str	r3, [r0, #16]
  77:Core/Src/stm32c0xx_hal_timebase_tim.c ****   htim1.Init.CounterMode = TIM_COUNTERMODE_UP;
 111              		.loc 1 77 3 is_stmt 1 view .LVU30
 112              		.loc 1 77 26 is_stmt 0 view .LVU31
 113 004c 8360     		str	r3, [r0, #8]
  78:Core/Src/stm32c0xx_hal_timebase_tim.c **** 
  79:Core/Src/stm32c0xx_hal_timebase_tim.c ****   if(HAL_TIM_Base_Init(&htim1) == HAL_OK)
 114              		.loc 1 79 3 is_stmt 1 view .LVU32
 115              		.loc 1 79 6 is_stmt 0 view .LVU33
 116 004e FFF7FEFF 		bl	HAL_TIM_Base_Init
 117              	.LVL10:
 118              		.loc 1 79 5 discriminator 1 view .LVU34
 119 0052 0028     		cmp	r0, #0
 120 0054 02D0     		beq	.L4
  80:Core/Src/stm32c0xx_hal_timebase_tim.c ****   {
  81:Core/Src/stm32c0xx_hal_timebase_tim.c ****     /* Start the TIM time Base generation in interrupt mode */
  82:Core/Src/stm32c0xx_hal_timebase_tim.c ****     return HAL_TIM_Base_Start_IT(&htim1);
  83:Core/Src/stm32c0xx_hal_timebase_tim.c ****   }
  84:Core/Src/stm32c0xx_hal_timebase_tim.c **** 
  85:Core/Src/stm32c0xx_hal_timebase_tim.c ****   /* Return function status */
  86:Core/Src/stm32c0xx_hal_timebase_tim.c ****   return HAL_ERROR;
 121              		.loc 1 86 10 view .LVU35
 122 0056 0120     		movs	r0, #1
 123              	.L2:
  87:Core/Src/stm32c0xx_hal_timebase_tim.c **** }
 124              		.loc 1 87 1 view .LVU36
 125 0058 09B0     		add	sp, sp, #36
 126              		@ sp needed
 127 005a 00BD     		pop	{pc}
 128              	.L4:
  82:Core/Src/stm32c0xx_hal_timebase_tim.c ****   }
 129              		.loc 1 82 5 is_stmt 1 view .LVU37
  82:Core/Src/stm32c0xx_hal_timebase_tim.c ****   }
 130              		.loc 1 82 12 is_stmt 0 view .LVU38
 131 005c 0348     		ldr	r0, .L5+8
 132 005e FFF7FEFF 		bl	HAL_TIM_Base_Start_IT
 133              	.LVL11:
 134 0062 F9E7     		b	.L2
 135              	.L6:
 136              		.align	2
 137              	.L5:
 138 0064 00100240 		.word	1073876992
 139 0068 40420F00 		.word	1000000
 140 006c 00000000 		.word	htim1
ARM GAS  C:\Users\Yasi\AppData\Local\Temp\ccrj17Ii.s 			page 5


 141 0070 002C0140 		.word	1073818624
 142 0074 E7030000 		.word	999
 143              		.cfi_endproc
 144              	.LFE214:
 146              		.section	.text.HAL_SuspendTick,"ax",%progbits
 147              		.align	1
 148              		.global	HAL_SuspendTick
 149              		.syntax unified
 150              		.code	16
 151              		.thumb_func
 153              	HAL_SuspendTick:
 154              	.LFB215:
  88:Core/Src/stm32c0xx_hal_timebase_tim.c **** 
  89:Core/Src/stm32c0xx_hal_timebase_tim.c **** /**
  90:Core/Src/stm32c0xx_hal_timebase_tim.c ****   * @brief  Suspend Tick increment.
  91:Core/Src/stm32c0xx_hal_timebase_tim.c ****   * @note   Disable the tick increment by disabling TIM1 update interrupt.
  92:Core/Src/stm32c0xx_hal_timebase_tim.c ****   * @param  None
  93:Core/Src/stm32c0xx_hal_timebase_tim.c ****   * @retval None
  94:Core/Src/stm32c0xx_hal_timebase_tim.c ****   */
  95:Core/Src/stm32c0xx_hal_timebase_tim.c **** void HAL_SuspendTick(void)
  96:Core/Src/stm32c0xx_hal_timebase_tim.c **** {
 155              		.loc 1 96 1 is_stmt 1 view -0
 156              		.cfi_startproc
 157              		@ args = 0, pretend = 0, frame = 0
 158              		@ frame_needed = 0, uses_anonymous_args = 0
 159              		@ link register save eliminated.
  97:Core/Src/stm32c0xx_hal_timebase_tim.c ****   /* Disable TIM1 update Interrupt */
  98:Core/Src/stm32c0xx_hal_timebase_tim.c ****   __HAL_TIM_DISABLE_IT(&htim1, TIM_IT_UPDATE);
 160              		.loc 1 98 3 view .LVU40
 161 0000 034B     		ldr	r3, .L8
 162 0002 1A68     		ldr	r2, [r3]
 163 0004 D368     		ldr	r3, [r2, #12]
 164 0006 0121     		movs	r1, #1
 165 0008 8B43     		bics	r3, r1
 166 000a D360     		str	r3, [r2, #12]
  99:Core/Src/stm32c0xx_hal_timebase_tim.c **** }
 167              		.loc 1 99 1 is_stmt 0 view .LVU41
 168              		@ sp needed
 169 000c 7047     		bx	lr
 170              	.L9:
 171 000e C046     		.align	2
 172              	.L8:
 173 0010 00000000 		.word	htim1
 174              		.cfi_endproc
 175              	.LFE215:
 177              		.section	.text.HAL_ResumeTick,"ax",%progbits
 178              		.align	1
 179              		.global	HAL_ResumeTick
 180              		.syntax unified
 181              		.code	16
 182              		.thumb_func
 184              	HAL_ResumeTick:
 185              	.LFB216:
 100:Core/Src/stm32c0xx_hal_timebase_tim.c **** 
 101:Core/Src/stm32c0xx_hal_timebase_tim.c **** /**
 102:Core/Src/stm32c0xx_hal_timebase_tim.c ****   * @brief  Resume Tick increment.
 103:Core/Src/stm32c0xx_hal_timebase_tim.c ****   * @note   Enable the tick increment by Enabling TIM1 update interrupt.
ARM GAS  C:\Users\Yasi\AppData\Local\Temp\ccrj17Ii.s 			page 6


 104:Core/Src/stm32c0xx_hal_timebase_tim.c ****   * @param  None
 105:Core/Src/stm32c0xx_hal_timebase_tim.c ****   * @retval None
 106:Core/Src/stm32c0xx_hal_timebase_tim.c ****   */
 107:Core/Src/stm32c0xx_hal_timebase_tim.c **** void HAL_ResumeTick(void)
 108:Core/Src/stm32c0xx_hal_timebase_tim.c **** {
 186              		.loc 1 108 1 is_stmt 1 view -0
 187              		.cfi_startproc
 188              		@ args = 0, pretend = 0, frame = 0
 189              		@ frame_needed = 0, uses_anonymous_args = 0
 190              		@ link register save eliminated.
 109:Core/Src/stm32c0xx_hal_timebase_tim.c ****   /* Enable TIM1 Update interrupt */
 110:Core/Src/stm32c0xx_hal_timebase_tim.c ****   __HAL_TIM_ENABLE_IT(&htim1, TIM_IT_UPDATE);
 191              		.loc 1 110 3 view .LVU43
 192 0000 034B     		ldr	r3, .L11
 193 0002 1A68     		ldr	r2, [r3]
 194 0004 D368     		ldr	r3, [r2, #12]
 195 0006 0121     		movs	r1, #1
 196 0008 0B43     		orrs	r3, r1
 197 000a D360     		str	r3, [r2, #12]
 111:Core/Src/stm32c0xx_hal_timebase_tim.c **** }
 198              		.loc 1 111 1 is_stmt 0 view .LVU44
 199              		@ sp needed
 200 000c 7047     		bx	lr
 201              	.L12:
 202 000e C046     		.align	2
 203              	.L11:
 204 0010 00000000 		.word	htim1
 205              		.cfi_endproc
 206              	.LFE216:
 208              		.global	htim1
 209              		.section	.bss.htim1,"aw",%nobits
 210              		.align	2
 213              	htim1:
 214 0000 00000000 		.space	76
 214      00000000 
 214      00000000 
 214      00000000 
 214      00000000 
 215              		.text
 216              	.Letext0:
 217              		.file 2 "Drivers/CMSIS/Device/ST/STM32C0xx/Include/stm32c031xx.h"
 218              		.file 3 "C:/Program Files (x86)/Arm GNU Toolchain arm-none-eabi/13.2 Rel1/arm-none-eabi/include/ma
 219              		.file 4 "C:/Program Files (x86)/Arm GNU Toolchain arm-none-eabi/13.2 Rel1/arm-none-eabi/include/sy
 220              		.file 5 "Drivers/STM32C0xx_HAL_Driver/Inc/stm32c0xx_hal_def.h"
 221              		.file 6 "Drivers/STM32C0xx_HAL_Driver/Inc/stm32c0xx_hal_rcc.h"
 222              		.file 7 "Drivers/STM32C0xx_HAL_Driver/Inc/stm32c0xx_hal_dma.h"
 223              		.file 8 "Drivers/STM32C0xx_HAL_Driver/Inc/stm32c0xx_hal_tim.h"
 224              		.file 9 "Drivers/STM32C0xx_HAL_Driver/Inc/stm32c0xx_hal_cortex.h"
ARM GAS  C:\Users\Yasi\AppData\Local\Temp\ccrj17Ii.s 			page 7

