ARM GAS  C:\Users\Yasi\AppData\Local\Temp\ccUhEIlv.s 			page 1


   1              		.cpu cortex-m0
   2              		.arch armv6s-m
   3              		.fpu softvfp
   4              		.eabi_attribute 20, 1
   5              		.eabi_attribute 21, 1
   6              		.eabi_attribute 23, 3
   7              		.eabi_attribute 24, 1
   8              		.eabi_attribute 25, 1
   9              		.eabi_attribute 26, 1
  10              		.eabi_attribute 30, 1
  11              		.eabi_attribute 34, 0
  12              		.eabi_attribute 18, 4
  13              		.file	"timers.c"
  14              		.text
  15              	.Ltext0:
  16              		.cfi_sections	.debug_frame
  17              		.file 1 "Middlewares/Third_Party/FreeRTOS/Source/timers.c"
  18              		.section	.text.prvGetNextExpireTime,"ax",%progbits
  19              		.align	1
  20              		.syntax unified
  21              		.code	16
  22              		.thumb_func
  24              	prvGetNextExpireTime:
  25              	.LVL0:
  26              	.LFB16:
   1:Middlewares/Third_Party/FreeRTOS/Source/timers.c **** /*
   2:Middlewares/Third_Party/FreeRTOS/Source/timers.c ****  * FreeRTOS Kernel V10.5.1
   3:Middlewares/Third_Party/FreeRTOS/Source/timers.c ****  * Copyright (C) 2021 Amazon.com, Inc. or its affiliates.  All Rights Reserved.
   4:Middlewares/Third_Party/FreeRTOS/Source/timers.c ****  *
   5:Middlewares/Third_Party/FreeRTOS/Source/timers.c ****  * SPDX-License-Identifier: MIT
   6:Middlewares/Third_Party/FreeRTOS/Source/timers.c ****  *
   7:Middlewares/Third_Party/FreeRTOS/Source/timers.c ****  * Permission is hereby granted, free of charge, to any person obtaining a copy of
   8:Middlewares/Third_Party/FreeRTOS/Source/timers.c ****  * this software and associated documentation files (the "Software"), to deal in
   9:Middlewares/Third_Party/FreeRTOS/Source/timers.c ****  * the Software without restriction, including without limitation the rights to
  10:Middlewares/Third_Party/FreeRTOS/Source/timers.c ****  * use, copy, modify, merge, publish, distribute, sublicense, and/or sell copies of
  11:Middlewares/Third_Party/FreeRTOS/Source/timers.c ****  * the Software, and to permit persons to whom the Software is furnished to do so,
  12:Middlewares/Third_Party/FreeRTOS/Source/timers.c ****  * subject to the following conditions:
  13:Middlewares/Third_Party/FreeRTOS/Source/timers.c ****  *
  14:Middlewares/Third_Party/FreeRTOS/Source/timers.c ****  * The above copyright notice and this permission notice shall be included in all
  15:Middlewares/Third_Party/FreeRTOS/Source/timers.c ****  * copies or substantial portions of the Software.
  16:Middlewares/Third_Party/FreeRTOS/Source/timers.c ****  *
  17:Middlewares/Third_Party/FreeRTOS/Source/timers.c ****  * THE SOFTWARE IS PROVIDED "AS IS", WITHOUT WARRANTY OF ANY KIND, EXPRESS OR
  18:Middlewares/Third_Party/FreeRTOS/Source/timers.c ****  * IMPLIED, INCLUDING BUT NOT LIMITED TO THE WARRANTIES OF MERCHANTABILITY, FITNESS
  19:Middlewares/Third_Party/FreeRTOS/Source/timers.c ****  * FOR A PARTICULAR PURPOSE AND NONINFRINGEMENT. IN NO EVENT SHALL THE AUTHORS OR
  20:Middlewares/Third_Party/FreeRTOS/Source/timers.c ****  * COPYRIGHT HOLDERS BE LIABLE FOR ANY CLAIM, DAMAGES OR OTHER LIABILITY, WHETHER
  21:Middlewares/Third_Party/FreeRTOS/Source/timers.c ****  * IN AN ACTION OF CONTRACT, TORT OR OTHERWISE, ARISING FROM, OUT OF OR IN
  22:Middlewares/Third_Party/FreeRTOS/Source/timers.c ****  * CONNECTION WITH THE SOFTWARE OR THE USE OR OTHER DEALINGS IN THE SOFTWARE.
  23:Middlewares/Third_Party/FreeRTOS/Source/timers.c ****  *
  24:Middlewares/Third_Party/FreeRTOS/Source/timers.c ****  * https://www.FreeRTOS.org
  25:Middlewares/Third_Party/FreeRTOS/Source/timers.c ****  * https://github.com/FreeRTOS
  26:Middlewares/Third_Party/FreeRTOS/Source/timers.c ****  *
  27:Middlewares/Third_Party/FreeRTOS/Source/timers.c ****  */
  28:Middlewares/Third_Party/FreeRTOS/Source/timers.c **** 
  29:Middlewares/Third_Party/FreeRTOS/Source/timers.c **** /* Standard includes. */
  30:Middlewares/Third_Party/FreeRTOS/Source/timers.c **** #include <stdlib.h>
  31:Middlewares/Third_Party/FreeRTOS/Source/timers.c **** 
  32:Middlewares/Third_Party/FreeRTOS/Source/timers.c **** /* Defining MPU_WRAPPERS_INCLUDED_FROM_API_FILE prevents task.h from redefining
ARM GAS  C:\Users\Yasi\AppData\Local\Temp\ccUhEIlv.s 			page 2


  33:Middlewares/Third_Party/FreeRTOS/Source/timers.c ****  * all the API functions to use the MPU wrappers.  That should only be done when
  34:Middlewares/Third_Party/FreeRTOS/Source/timers.c ****  * task.h is included from an application file. */
  35:Middlewares/Third_Party/FreeRTOS/Source/timers.c **** #define MPU_WRAPPERS_INCLUDED_FROM_API_FILE
  36:Middlewares/Third_Party/FreeRTOS/Source/timers.c **** 
  37:Middlewares/Third_Party/FreeRTOS/Source/timers.c **** #include "FreeRTOS.h"
  38:Middlewares/Third_Party/FreeRTOS/Source/timers.c **** #include "task.h"
  39:Middlewares/Third_Party/FreeRTOS/Source/timers.c **** #include "queue.h"
  40:Middlewares/Third_Party/FreeRTOS/Source/timers.c **** #include "timers.h"
  41:Middlewares/Third_Party/FreeRTOS/Source/timers.c **** 
  42:Middlewares/Third_Party/FreeRTOS/Source/timers.c **** #if ( INCLUDE_xTimerPendFunctionCall == 1 ) && ( configUSE_TIMERS == 0 )
  43:Middlewares/Third_Party/FreeRTOS/Source/timers.c ****     #error configUSE_TIMERS must be set to 1 to make the xTimerPendFunctionCall() function availabl
  44:Middlewares/Third_Party/FreeRTOS/Source/timers.c **** #endif
  45:Middlewares/Third_Party/FreeRTOS/Source/timers.c **** 
  46:Middlewares/Third_Party/FreeRTOS/Source/timers.c **** /* Lint e9021, e961 and e750 are suppressed as a MISRA exception justified
  47:Middlewares/Third_Party/FreeRTOS/Source/timers.c ****  * because the MPU ports require MPU_WRAPPERS_INCLUDED_FROM_API_FILE to be defined
  48:Middlewares/Third_Party/FreeRTOS/Source/timers.c ****  * for the header files above, but not in this file, in order to generate the
  49:Middlewares/Third_Party/FreeRTOS/Source/timers.c ****  * correct privileged Vs unprivileged linkage and placement. */
  50:Middlewares/Third_Party/FreeRTOS/Source/timers.c **** #undef MPU_WRAPPERS_INCLUDED_FROM_API_FILE /*lint !e9021 !e961 !e750. */
  51:Middlewares/Third_Party/FreeRTOS/Source/timers.c **** 
  52:Middlewares/Third_Party/FreeRTOS/Source/timers.c **** 
  53:Middlewares/Third_Party/FreeRTOS/Source/timers.c **** /* This entire source file will be skipped if the application is not configured
  54:Middlewares/Third_Party/FreeRTOS/Source/timers.c ****  * to include software timer functionality.  This #if is closed at the very bottom
  55:Middlewares/Third_Party/FreeRTOS/Source/timers.c ****  * of this file.  If you want to include software timer functionality then ensure
  56:Middlewares/Third_Party/FreeRTOS/Source/timers.c ****  * configUSE_TIMERS is set to 1 in FreeRTOSConfig.h. */
  57:Middlewares/Third_Party/FreeRTOS/Source/timers.c **** #if ( configUSE_TIMERS == 1 )
  58:Middlewares/Third_Party/FreeRTOS/Source/timers.c **** 
  59:Middlewares/Third_Party/FreeRTOS/Source/timers.c **** /* Misc definitions. */
  60:Middlewares/Third_Party/FreeRTOS/Source/timers.c ****     #define tmrNO_DELAY                    ( ( TickType_t ) 0U )
  61:Middlewares/Third_Party/FreeRTOS/Source/timers.c ****     #define tmrMAX_TIME_BEFORE_OVERFLOW    ( ( TickType_t ) -1 )
  62:Middlewares/Third_Party/FreeRTOS/Source/timers.c **** 
  63:Middlewares/Third_Party/FreeRTOS/Source/timers.c **** /* The name assigned to the timer service task.  This can be overridden by
  64:Middlewares/Third_Party/FreeRTOS/Source/timers.c ****  * defining trmTIMER_SERVICE_TASK_NAME in FreeRTOSConfig.h. */
  65:Middlewares/Third_Party/FreeRTOS/Source/timers.c ****     #ifndef configTIMER_SERVICE_TASK_NAME
  66:Middlewares/Third_Party/FreeRTOS/Source/timers.c ****         #define configTIMER_SERVICE_TASK_NAME    "Tmr Svc"
  67:Middlewares/Third_Party/FreeRTOS/Source/timers.c ****     #endif
  68:Middlewares/Third_Party/FreeRTOS/Source/timers.c **** 
  69:Middlewares/Third_Party/FreeRTOS/Source/timers.c **** /* Bit definitions used in the ucStatus member of a timer structure. */
  70:Middlewares/Third_Party/FreeRTOS/Source/timers.c ****     #define tmrSTATUS_IS_ACTIVE                  ( ( uint8_t ) 0x01 )
  71:Middlewares/Third_Party/FreeRTOS/Source/timers.c ****     #define tmrSTATUS_IS_STATICALLY_ALLOCATED    ( ( uint8_t ) 0x02 )
  72:Middlewares/Third_Party/FreeRTOS/Source/timers.c ****     #define tmrSTATUS_IS_AUTORELOAD              ( ( uint8_t ) 0x04 )
  73:Middlewares/Third_Party/FreeRTOS/Source/timers.c **** 
  74:Middlewares/Third_Party/FreeRTOS/Source/timers.c **** /* The definition of the timers themselves. */
  75:Middlewares/Third_Party/FreeRTOS/Source/timers.c ****     typedef struct tmrTimerControl                  /* The old naming convention is used to prevent
  76:Middlewares/Third_Party/FreeRTOS/Source/timers.c ****     {
  77:Middlewares/Third_Party/FreeRTOS/Source/timers.c ****         const char * pcTimerName;                   /*<< Text name.  This is not used by the kernel
  78:Middlewares/Third_Party/FreeRTOS/Source/timers.c ****         ListItem_t xTimerListItem;                  /*<< Standard linked list item as used by all k
  79:Middlewares/Third_Party/FreeRTOS/Source/timers.c ****         TickType_t xTimerPeriodInTicks;             /*<< How quickly and often the timer expires. *
  80:Middlewares/Third_Party/FreeRTOS/Source/timers.c ****         void * pvTimerID;                           /*<< An ID to identify the timer.  This allows 
  81:Middlewares/Third_Party/FreeRTOS/Source/timers.c ****         TimerCallbackFunction_t pxCallbackFunction; /*<< The function that will be called when the 
  82:Middlewares/Third_Party/FreeRTOS/Source/timers.c ****         #if ( configUSE_TRACE_FACILITY == 1 )
  83:Middlewares/Third_Party/FreeRTOS/Source/timers.c ****             UBaseType_t uxTimerNumber;              /*<< An ID assigned by trace tools such as Free
  84:Middlewares/Third_Party/FreeRTOS/Source/timers.c ****         #endif
  85:Middlewares/Third_Party/FreeRTOS/Source/timers.c ****         uint8_t ucStatus;                           /*<< Holds bits to say if the timer was statica
  86:Middlewares/Third_Party/FreeRTOS/Source/timers.c ****     } xTIMER;
  87:Middlewares/Third_Party/FreeRTOS/Source/timers.c **** 
  88:Middlewares/Third_Party/FreeRTOS/Source/timers.c **** /* The old xTIMER name is maintained above then typedefed to the new Timer_t
  89:Middlewares/Third_Party/FreeRTOS/Source/timers.c ****  * name below to enable the use of older kernel aware debuggers. */
ARM GAS  C:\Users\Yasi\AppData\Local\Temp\ccUhEIlv.s 			page 3


  90:Middlewares/Third_Party/FreeRTOS/Source/timers.c ****     typedef xTIMER Timer_t;
  91:Middlewares/Third_Party/FreeRTOS/Source/timers.c **** 
  92:Middlewares/Third_Party/FreeRTOS/Source/timers.c **** /* The definition of messages that can be sent and received on the timer queue.
  93:Middlewares/Third_Party/FreeRTOS/Source/timers.c ****  * Two types of message can be queued - messages that manipulate a software timer,
  94:Middlewares/Third_Party/FreeRTOS/Source/timers.c ****  * and messages that request the execution of a non-timer related callback.  The
  95:Middlewares/Third_Party/FreeRTOS/Source/timers.c ****  * two message types are defined in two separate structures, xTimerParametersType
  96:Middlewares/Third_Party/FreeRTOS/Source/timers.c ****  * and xCallbackParametersType respectively. */
  97:Middlewares/Third_Party/FreeRTOS/Source/timers.c ****     typedef struct tmrTimerParameters
  98:Middlewares/Third_Party/FreeRTOS/Source/timers.c ****     {
  99:Middlewares/Third_Party/FreeRTOS/Source/timers.c ****         TickType_t xMessageValue; /*<< An optional value used by a subset of commands, for example,
 100:Middlewares/Third_Party/FreeRTOS/Source/timers.c ****         Timer_t * pxTimer;        /*<< The timer to which the command will be applied. */
 101:Middlewares/Third_Party/FreeRTOS/Source/timers.c ****     } TimerParameter_t;
 102:Middlewares/Third_Party/FreeRTOS/Source/timers.c **** 
 103:Middlewares/Third_Party/FreeRTOS/Source/timers.c **** 
 104:Middlewares/Third_Party/FreeRTOS/Source/timers.c ****     typedef struct tmrCallbackParameters
 105:Middlewares/Third_Party/FreeRTOS/Source/timers.c ****     {
 106:Middlewares/Third_Party/FreeRTOS/Source/timers.c ****         PendedFunction_t pxCallbackFunction; /* << The callback function to execute. */
 107:Middlewares/Third_Party/FreeRTOS/Source/timers.c ****         void * pvParameter1;                 /* << The value that will be used as the callback func
 108:Middlewares/Third_Party/FreeRTOS/Source/timers.c ****         uint32_t ulParameter2;               /* << The value that will be used as the callback func
 109:Middlewares/Third_Party/FreeRTOS/Source/timers.c ****     } CallbackParameters_t;
 110:Middlewares/Third_Party/FreeRTOS/Source/timers.c **** 
 111:Middlewares/Third_Party/FreeRTOS/Source/timers.c **** /* The structure that contains the two message types, along with an identifier
 112:Middlewares/Third_Party/FreeRTOS/Source/timers.c ****  * that is used to determine which message type is valid. */
 113:Middlewares/Third_Party/FreeRTOS/Source/timers.c ****     typedef struct tmrTimerQueueMessage
 114:Middlewares/Third_Party/FreeRTOS/Source/timers.c ****     {
 115:Middlewares/Third_Party/FreeRTOS/Source/timers.c ****         BaseType_t xMessageID; /*<< The command being sent to the timer service task. */
 116:Middlewares/Third_Party/FreeRTOS/Source/timers.c ****         union
 117:Middlewares/Third_Party/FreeRTOS/Source/timers.c ****         {
 118:Middlewares/Third_Party/FreeRTOS/Source/timers.c ****             TimerParameter_t xTimerParameters;
 119:Middlewares/Third_Party/FreeRTOS/Source/timers.c **** 
 120:Middlewares/Third_Party/FreeRTOS/Source/timers.c ****             /* Don't include xCallbackParameters if it is not going to be used as
 121:Middlewares/Third_Party/FreeRTOS/Source/timers.c ****              * it makes the structure (and therefore the timer queue) larger. */
 122:Middlewares/Third_Party/FreeRTOS/Source/timers.c ****             #if ( INCLUDE_xTimerPendFunctionCall == 1 )
 123:Middlewares/Third_Party/FreeRTOS/Source/timers.c ****                 CallbackParameters_t xCallbackParameters;
 124:Middlewares/Third_Party/FreeRTOS/Source/timers.c ****             #endif /* INCLUDE_xTimerPendFunctionCall */
 125:Middlewares/Third_Party/FreeRTOS/Source/timers.c ****         } u;
 126:Middlewares/Third_Party/FreeRTOS/Source/timers.c ****     } DaemonTaskMessage_t;
 127:Middlewares/Third_Party/FreeRTOS/Source/timers.c **** 
 128:Middlewares/Third_Party/FreeRTOS/Source/timers.c **** /*lint -save -e956 A manual analysis and inspection has been used to determine
 129:Middlewares/Third_Party/FreeRTOS/Source/timers.c ****  * which static variables must be declared volatile. */
 130:Middlewares/Third_Party/FreeRTOS/Source/timers.c **** 
 131:Middlewares/Third_Party/FreeRTOS/Source/timers.c **** /* The list in which active timers are stored.  Timers are referenced in expire
 132:Middlewares/Third_Party/FreeRTOS/Source/timers.c ****  * time order, with the nearest expiry time at the front of the list.  Only the
 133:Middlewares/Third_Party/FreeRTOS/Source/timers.c ****  * timer service task is allowed to access these lists.
 134:Middlewares/Third_Party/FreeRTOS/Source/timers.c ****  * xActiveTimerList1 and xActiveTimerList2 could be at function scope but that
 135:Middlewares/Third_Party/FreeRTOS/Source/timers.c ****  * breaks some kernel aware debuggers, and debuggers that reply on removing the
 136:Middlewares/Third_Party/FreeRTOS/Source/timers.c ****  * static qualifier. */
 137:Middlewares/Third_Party/FreeRTOS/Source/timers.c ****     PRIVILEGED_DATA static List_t xActiveTimerList1;
 138:Middlewares/Third_Party/FreeRTOS/Source/timers.c ****     PRIVILEGED_DATA static List_t xActiveTimerList2;
 139:Middlewares/Third_Party/FreeRTOS/Source/timers.c ****     PRIVILEGED_DATA static List_t * pxCurrentTimerList;
 140:Middlewares/Third_Party/FreeRTOS/Source/timers.c ****     PRIVILEGED_DATA static List_t * pxOverflowTimerList;
 141:Middlewares/Third_Party/FreeRTOS/Source/timers.c **** 
 142:Middlewares/Third_Party/FreeRTOS/Source/timers.c **** /* A queue that is used to send commands to the timer service task. */
 143:Middlewares/Third_Party/FreeRTOS/Source/timers.c ****     PRIVILEGED_DATA static QueueHandle_t xTimerQueue = NULL;
 144:Middlewares/Third_Party/FreeRTOS/Source/timers.c ****     PRIVILEGED_DATA static TaskHandle_t xTimerTaskHandle = NULL;
 145:Middlewares/Third_Party/FreeRTOS/Source/timers.c **** 
 146:Middlewares/Third_Party/FreeRTOS/Source/timers.c **** /*lint -restore */
ARM GAS  C:\Users\Yasi\AppData\Local\Temp\ccUhEIlv.s 			page 4


 147:Middlewares/Third_Party/FreeRTOS/Source/timers.c **** 
 148:Middlewares/Third_Party/FreeRTOS/Source/timers.c **** /*-----------------------------------------------------------*/
 149:Middlewares/Third_Party/FreeRTOS/Source/timers.c **** 
 150:Middlewares/Third_Party/FreeRTOS/Source/timers.c **** /*
 151:Middlewares/Third_Party/FreeRTOS/Source/timers.c ****  * Initialise the infrastructure used by the timer service task if it has not
 152:Middlewares/Third_Party/FreeRTOS/Source/timers.c ****  * been initialised already.
 153:Middlewares/Third_Party/FreeRTOS/Source/timers.c ****  */
 154:Middlewares/Third_Party/FreeRTOS/Source/timers.c ****     static void prvCheckForValidListAndQueue( void ) PRIVILEGED_FUNCTION;
 155:Middlewares/Third_Party/FreeRTOS/Source/timers.c **** 
 156:Middlewares/Third_Party/FreeRTOS/Source/timers.c **** /*
 157:Middlewares/Third_Party/FreeRTOS/Source/timers.c ****  * The timer service task (daemon).  Timer functionality is controlled by this
 158:Middlewares/Third_Party/FreeRTOS/Source/timers.c ****  * task.  Other tasks communicate with the timer service task using the
 159:Middlewares/Third_Party/FreeRTOS/Source/timers.c ****  * xTimerQueue queue.
 160:Middlewares/Third_Party/FreeRTOS/Source/timers.c ****  */
 161:Middlewares/Third_Party/FreeRTOS/Source/timers.c ****     static portTASK_FUNCTION_PROTO( prvTimerTask, pvParameters ) PRIVILEGED_FUNCTION;
 162:Middlewares/Third_Party/FreeRTOS/Source/timers.c **** 
 163:Middlewares/Third_Party/FreeRTOS/Source/timers.c **** /*
 164:Middlewares/Third_Party/FreeRTOS/Source/timers.c ****  * Called by the timer service task to interpret and process a command it
 165:Middlewares/Third_Party/FreeRTOS/Source/timers.c ****  * received on the timer queue.
 166:Middlewares/Third_Party/FreeRTOS/Source/timers.c ****  */
 167:Middlewares/Third_Party/FreeRTOS/Source/timers.c ****     static void prvProcessReceivedCommands( void ) PRIVILEGED_FUNCTION;
 168:Middlewares/Third_Party/FreeRTOS/Source/timers.c **** 
 169:Middlewares/Third_Party/FreeRTOS/Source/timers.c **** /*
 170:Middlewares/Third_Party/FreeRTOS/Source/timers.c ****  * Insert the timer into either xActiveTimerList1, or xActiveTimerList2,
 171:Middlewares/Third_Party/FreeRTOS/Source/timers.c ****  * depending on if the expire time causes a timer counter overflow.
 172:Middlewares/Third_Party/FreeRTOS/Source/timers.c ****  */
 173:Middlewares/Third_Party/FreeRTOS/Source/timers.c ****     static BaseType_t prvInsertTimerInActiveList( Timer_t * const pxTimer,
 174:Middlewares/Third_Party/FreeRTOS/Source/timers.c ****                                                   const TickType_t xNextExpiryTime,
 175:Middlewares/Third_Party/FreeRTOS/Source/timers.c ****                                                   const TickType_t xTimeNow,
 176:Middlewares/Third_Party/FreeRTOS/Source/timers.c ****                                                   const TickType_t xCommandTime ) PRIVILEGED_FUNCTI
 177:Middlewares/Third_Party/FreeRTOS/Source/timers.c **** 
 178:Middlewares/Third_Party/FreeRTOS/Source/timers.c **** /*
 179:Middlewares/Third_Party/FreeRTOS/Source/timers.c ****  * Reload the specified auto-reload timer.  If the reloading is backlogged,
 180:Middlewares/Third_Party/FreeRTOS/Source/timers.c ****  * clear the backlog, calling the callback for each additional reload.  When
 181:Middlewares/Third_Party/FreeRTOS/Source/timers.c ****  * this function returns, the next expiry time is after xTimeNow.
 182:Middlewares/Third_Party/FreeRTOS/Source/timers.c ****  */
 183:Middlewares/Third_Party/FreeRTOS/Source/timers.c ****     static void prvReloadTimer( Timer_t * const pxTimer,
 184:Middlewares/Third_Party/FreeRTOS/Source/timers.c ****                                 TickType_t xExpiredTime,
 185:Middlewares/Third_Party/FreeRTOS/Source/timers.c ****                                 const TickType_t xTimeNow ) PRIVILEGED_FUNCTION;
 186:Middlewares/Third_Party/FreeRTOS/Source/timers.c **** 
 187:Middlewares/Third_Party/FreeRTOS/Source/timers.c **** /*
 188:Middlewares/Third_Party/FreeRTOS/Source/timers.c ****  * An active timer has reached its expire time.  Reload the timer if it is an
 189:Middlewares/Third_Party/FreeRTOS/Source/timers.c ****  * auto-reload timer, then call its callback.
 190:Middlewares/Third_Party/FreeRTOS/Source/timers.c ****  */
 191:Middlewares/Third_Party/FreeRTOS/Source/timers.c ****     static void prvProcessExpiredTimer( const TickType_t xNextExpireTime,
 192:Middlewares/Third_Party/FreeRTOS/Source/timers.c ****                                         const TickType_t xTimeNow ) PRIVILEGED_FUNCTION;
 193:Middlewares/Third_Party/FreeRTOS/Source/timers.c **** 
 194:Middlewares/Third_Party/FreeRTOS/Source/timers.c **** /*
 195:Middlewares/Third_Party/FreeRTOS/Source/timers.c ****  * The tick count has overflowed.  Switch the timer lists after ensuring the
 196:Middlewares/Third_Party/FreeRTOS/Source/timers.c ****  * current timer list does not still reference some timers.
 197:Middlewares/Third_Party/FreeRTOS/Source/timers.c ****  */
 198:Middlewares/Third_Party/FreeRTOS/Source/timers.c ****     static void prvSwitchTimerLists( void ) PRIVILEGED_FUNCTION;
 199:Middlewares/Third_Party/FreeRTOS/Source/timers.c **** 
 200:Middlewares/Third_Party/FreeRTOS/Source/timers.c **** /*
 201:Middlewares/Third_Party/FreeRTOS/Source/timers.c ****  * Obtain the current tick count, setting *pxTimerListsWereSwitched to pdTRUE
 202:Middlewares/Third_Party/FreeRTOS/Source/timers.c ****  * if a tick count overflow occurred since prvSampleTimeNow() was last called.
 203:Middlewares/Third_Party/FreeRTOS/Source/timers.c ****  */
ARM GAS  C:\Users\Yasi\AppData\Local\Temp\ccUhEIlv.s 			page 5


 204:Middlewares/Third_Party/FreeRTOS/Source/timers.c ****     static TickType_t prvSampleTimeNow( BaseType_t * const pxTimerListsWereSwitched ) PRIVILEGED_FU
 205:Middlewares/Third_Party/FreeRTOS/Source/timers.c **** 
 206:Middlewares/Third_Party/FreeRTOS/Source/timers.c **** /*
 207:Middlewares/Third_Party/FreeRTOS/Source/timers.c ****  * If the timer list contains any active timers then return the expire time of
 208:Middlewares/Third_Party/FreeRTOS/Source/timers.c ****  * the timer that will expire first and set *pxListWasEmpty to false.  If the
 209:Middlewares/Third_Party/FreeRTOS/Source/timers.c ****  * timer list does not contain any timers then return 0 and set *pxListWasEmpty
 210:Middlewares/Third_Party/FreeRTOS/Source/timers.c ****  * to pdTRUE.
 211:Middlewares/Third_Party/FreeRTOS/Source/timers.c ****  */
 212:Middlewares/Third_Party/FreeRTOS/Source/timers.c ****     static TickType_t prvGetNextExpireTime( BaseType_t * const pxListWasEmpty ) PRIVILEGED_FUNCTION
 213:Middlewares/Third_Party/FreeRTOS/Source/timers.c **** 
 214:Middlewares/Third_Party/FreeRTOS/Source/timers.c **** /*
 215:Middlewares/Third_Party/FreeRTOS/Source/timers.c ****  * If a timer has expired, process it.  Otherwise, block the timer service task
 216:Middlewares/Third_Party/FreeRTOS/Source/timers.c ****  * until either a timer does expire or a command is received.
 217:Middlewares/Third_Party/FreeRTOS/Source/timers.c ****  */
 218:Middlewares/Third_Party/FreeRTOS/Source/timers.c ****     static void prvProcessTimerOrBlockTask( const TickType_t xNextExpireTime,
 219:Middlewares/Third_Party/FreeRTOS/Source/timers.c ****                                             BaseType_t xListWasEmpty ) PRIVILEGED_FUNCTION;
 220:Middlewares/Third_Party/FreeRTOS/Source/timers.c **** 
 221:Middlewares/Third_Party/FreeRTOS/Source/timers.c **** /*
 222:Middlewares/Third_Party/FreeRTOS/Source/timers.c ****  * Called after a Timer_t structure has been allocated either statically or
 223:Middlewares/Third_Party/FreeRTOS/Source/timers.c ****  * dynamically to fill in the structure's members.
 224:Middlewares/Third_Party/FreeRTOS/Source/timers.c ****  */
 225:Middlewares/Third_Party/FreeRTOS/Source/timers.c ****     static void prvInitialiseNewTimer( const char * const pcTimerName, /*lint !e971 Unqualified cha
 226:Middlewares/Third_Party/FreeRTOS/Source/timers.c ****                                        const TickType_t xTimerPeriodInTicks,
 227:Middlewares/Third_Party/FreeRTOS/Source/timers.c ****                                        const BaseType_t xAutoReload,
 228:Middlewares/Third_Party/FreeRTOS/Source/timers.c ****                                        void * const pvTimerID,
 229:Middlewares/Third_Party/FreeRTOS/Source/timers.c ****                                        TimerCallbackFunction_t pxCallbackFunction,
 230:Middlewares/Third_Party/FreeRTOS/Source/timers.c ****                                        Timer_t * pxNewTimer ) PRIVILEGED_FUNCTION;
 231:Middlewares/Third_Party/FreeRTOS/Source/timers.c **** /*-----------------------------------------------------------*/
 232:Middlewares/Third_Party/FreeRTOS/Source/timers.c **** 
 233:Middlewares/Third_Party/FreeRTOS/Source/timers.c ****     BaseType_t xTimerCreateTimerTask( void )
 234:Middlewares/Third_Party/FreeRTOS/Source/timers.c ****     {
 235:Middlewares/Third_Party/FreeRTOS/Source/timers.c ****         BaseType_t xReturn = pdFAIL;
 236:Middlewares/Third_Party/FreeRTOS/Source/timers.c **** 
 237:Middlewares/Third_Party/FreeRTOS/Source/timers.c ****         /* This function is called when the scheduler is started if
 238:Middlewares/Third_Party/FreeRTOS/Source/timers.c ****          * configUSE_TIMERS is set to 1.  Check that the infrastructure used by the
 239:Middlewares/Third_Party/FreeRTOS/Source/timers.c ****          * timer service task has been created/initialised.  If timers have already
 240:Middlewares/Third_Party/FreeRTOS/Source/timers.c ****          * been created then the initialisation will already have been performed. */
 241:Middlewares/Third_Party/FreeRTOS/Source/timers.c ****         prvCheckForValidListAndQueue();
 242:Middlewares/Third_Party/FreeRTOS/Source/timers.c **** 
 243:Middlewares/Third_Party/FreeRTOS/Source/timers.c ****         if( xTimerQueue != NULL )
 244:Middlewares/Third_Party/FreeRTOS/Source/timers.c ****         {
 245:Middlewares/Third_Party/FreeRTOS/Source/timers.c ****             #if ( configSUPPORT_STATIC_ALLOCATION == 1 )
 246:Middlewares/Third_Party/FreeRTOS/Source/timers.c ****             {
 247:Middlewares/Third_Party/FreeRTOS/Source/timers.c ****                 StaticTask_t * pxTimerTaskTCBBuffer = NULL;
 248:Middlewares/Third_Party/FreeRTOS/Source/timers.c ****                 StackType_t * pxTimerTaskStackBuffer = NULL;
 249:Middlewares/Third_Party/FreeRTOS/Source/timers.c ****                 uint32_t ulTimerTaskStackSize;
 250:Middlewares/Third_Party/FreeRTOS/Source/timers.c **** 
 251:Middlewares/Third_Party/FreeRTOS/Source/timers.c ****                 vApplicationGetTimerTaskMemory( &pxTimerTaskTCBBuffer, &pxTimerTaskStackBuffer, &ul
 252:Middlewares/Third_Party/FreeRTOS/Source/timers.c ****                 xTimerTaskHandle = xTaskCreateStatic( prvTimerTask,
 253:Middlewares/Third_Party/FreeRTOS/Source/timers.c ****                                                       configTIMER_SERVICE_TASK_NAME,
 254:Middlewares/Third_Party/FreeRTOS/Source/timers.c ****                                                       ulTimerTaskStackSize,
 255:Middlewares/Third_Party/FreeRTOS/Source/timers.c ****                                                       NULL,
 256:Middlewares/Third_Party/FreeRTOS/Source/timers.c ****                                                       ( ( UBaseType_t ) configTIMER_TASK_PRIORITY )
 257:Middlewares/Third_Party/FreeRTOS/Source/timers.c ****                                                       pxTimerTaskStackBuffer,
 258:Middlewares/Third_Party/FreeRTOS/Source/timers.c ****                                                       pxTimerTaskTCBBuffer );
 259:Middlewares/Third_Party/FreeRTOS/Source/timers.c **** 
 260:Middlewares/Third_Party/FreeRTOS/Source/timers.c ****                 if( xTimerTaskHandle != NULL )
ARM GAS  C:\Users\Yasi\AppData\Local\Temp\ccUhEIlv.s 			page 6


 261:Middlewares/Third_Party/FreeRTOS/Source/timers.c ****                 {
 262:Middlewares/Third_Party/FreeRTOS/Source/timers.c ****                     xReturn = pdPASS;
 263:Middlewares/Third_Party/FreeRTOS/Source/timers.c ****                 }
 264:Middlewares/Third_Party/FreeRTOS/Source/timers.c ****             }
 265:Middlewares/Third_Party/FreeRTOS/Source/timers.c ****             #else /* if ( configSUPPORT_STATIC_ALLOCATION == 1 ) */
 266:Middlewares/Third_Party/FreeRTOS/Source/timers.c ****             {
 267:Middlewares/Third_Party/FreeRTOS/Source/timers.c ****                 xReturn = xTaskCreate( prvTimerTask,
 268:Middlewares/Third_Party/FreeRTOS/Source/timers.c ****                                        configTIMER_SERVICE_TASK_NAME,
 269:Middlewares/Third_Party/FreeRTOS/Source/timers.c ****                                        configTIMER_TASK_STACK_DEPTH,
 270:Middlewares/Third_Party/FreeRTOS/Source/timers.c ****                                        NULL,
 271:Middlewares/Third_Party/FreeRTOS/Source/timers.c ****                                        ( ( UBaseType_t ) configTIMER_TASK_PRIORITY ) | portPRIVILEG
 272:Middlewares/Third_Party/FreeRTOS/Source/timers.c ****                                        &xTimerTaskHandle );
 273:Middlewares/Third_Party/FreeRTOS/Source/timers.c ****             }
 274:Middlewares/Third_Party/FreeRTOS/Source/timers.c ****             #endif /* configSUPPORT_STATIC_ALLOCATION */
 275:Middlewares/Third_Party/FreeRTOS/Source/timers.c ****         }
 276:Middlewares/Third_Party/FreeRTOS/Source/timers.c ****         else
 277:Middlewares/Third_Party/FreeRTOS/Source/timers.c ****         {
 278:Middlewares/Third_Party/FreeRTOS/Source/timers.c ****             mtCOVERAGE_TEST_MARKER();
 279:Middlewares/Third_Party/FreeRTOS/Source/timers.c ****         }
 280:Middlewares/Third_Party/FreeRTOS/Source/timers.c **** 
 281:Middlewares/Third_Party/FreeRTOS/Source/timers.c ****         configASSERT( xReturn );
 282:Middlewares/Third_Party/FreeRTOS/Source/timers.c ****         return xReturn;
 283:Middlewares/Third_Party/FreeRTOS/Source/timers.c ****     }
 284:Middlewares/Third_Party/FreeRTOS/Source/timers.c **** /*-----------------------------------------------------------*/
 285:Middlewares/Third_Party/FreeRTOS/Source/timers.c **** 
 286:Middlewares/Third_Party/FreeRTOS/Source/timers.c ****     #if ( configSUPPORT_DYNAMIC_ALLOCATION == 1 )
 287:Middlewares/Third_Party/FreeRTOS/Source/timers.c **** 
 288:Middlewares/Third_Party/FreeRTOS/Source/timers.c ****         TimerHandle_t xTimerCreate( const char * const pcTimerName, /*lint !e971 Unqualified char t
 289:Middlewares/Third_Party/FreeRTOS/Source/timers.c ****                                     const TickType_t xTimerPeriodInTicks,
 290:Middlewares/Third_Party/FreeRTOS/Source/timers.c ****                                     const BaseType_t xAutoReload,
 291:Middlewares/Third_Party/FreeRTOS/Source/timers.c ****                                     void * const pvTimerID,
 292:Middlewares/Third_Party/FreeRTOS/Source/timers.c ****                                     TimerCallbackFunction_t pxCallbackFunction )
 293:Middlewares/Third_Party/FreeRTOS/Source/timers.c ****         {
 294:Middlewares/Third_Party/FreeRTOS/Source/timers.c ****             Timer_t * pxNewTimer;
 295:Middlewares/Third_Party/FreeRTOS/Source/timers.c **** 
 296:Middlewares/Third_Party/FreeRTOS/Source/timers.c ****             pxNewTimer = ( Timer_t * ) pvPortMalloc( sizeof( Timer_t ) ); /*lint !e9087 !e9079 All 
 297:Middlewares/Third_Party/FreeRTOS/Source/timers.c **** 
 298:Middlewares/Third_Party/FreeRTOS/Source/timers.c ****             if( pxNewTimer != NULL )
 299:Middlewares/Third_Party/FreeRTOS/Source/timers.c ****             {
 300:Middlewares/Third_Party/FreeRTOS/Source/timers.c ****                 /* Status is thus far zero as the timer is not created statically
 301:Middlewares/Third_Party/FreeRTOS/Source/timers.c ****                  * and has not been started.  The auto-reload bit may get set in
 302:Middlewares/Third_Party/FreeRTOS/Source/timers.c ****                  * prvInitialiseNewTimer. */
 303:Middlewares/Third_Party/FreeRTOS/Source/timers.c ****                 pxNewTimer->ucStatus = 0x00;
 304:Middlewares/Third_Party/FreeRTOS/Source/timers.c ****                 prvInitialiseNewTimer( pcTimerName, xTimerPeriodInTicks, xAutoReload, pvTimerID, px
 305:Middlewares/Third_Party/FreeRTOS/Source/timers.c ****             }
 306:Middlewares/Third_Party/FreeRTOS/Source/timers.c **** 
 307:Middlewares/Third_Party/FreeRTOS/Source/timers.c ****             return pxNewTimer;
 308:Middlewares/Third_Party/FreeRTOS/Source/timers.c ****         }
 309:Middlewares/Third_Party/FreeRTOS/Source/timers.c **** 
 310:Middlewares/Third_Party/FreeRTOS/Source/timers.c ****     #endif /* configSUPPORT_DYNAMIC_ALLOCATION */
 311:Middlewares/Third_Party/FreeRTOS/Source/timers.c **** /*-----------------------------------------------------------*/
 312:Middlewares/Third_Party/FreeRTOS/Source/timers.c **** 
 313:Middlewares/Third_Party/FreeRTOS/Source/timers.c ****     #if ( configSUPPORT_STATIC_ALLOCATION == 1 )
 314:Middlewares/Third_Party/FreeRTOS/Source/timers.c **** 
 315:Middlewares/Third_Party/FreeRTOS/Source/timers.c ****         TimerHandle_t xTimerCreateStatic( const char * const pcTimerName, /*lint !e971 Unqualified 
 316:Middlewares/Third_Party/FreeRTOS/Source/timers.c ****                                           const TickType_t xTimerPeriodInTicks,
 317:Middlewares/Third_Party/FreeRTOS/Source/timers.c ****                                           const BaseType_t xAutoReload,
ARM GAS  C:\Users\Yasi\AppData\Local\Temp\ccUhEIlv.s 			page 7


 318:Middlewares/Third_Party/FreeRTOS/Source/timers.c ****                                           void * const pvTimerID,
 319:Middlewares/Third_Party/FreeRTOS/Source/timers.c ****                                           TimerCallbackFunction_t pxCallbackFunction,
 320:Middlewares/Third_Party/FreeRTOS/Source/timers.c ****                                           StaticTimer_t * pxTimerBuffer )
 321:Middlewares/Third_Party/FreeRTOS/Source/timers.c ****         {
 322:Middlewares/Third_Party/FreeRTOS/Source/timers.c ****             Timer_t * pxNewTimer;
 323:Middlewares/Third_Party/FreeRTOS/Source/timers.c **** 
 324:Middlewares/Third_Party/FreeRTOS/Source/timers.c ****             #if ( configASSERT_DEFINED == 1 )
 325:Middlewares/Third_Party/FreeRTOS/Source/timers.c ****             {
 326:Middlewares/Third_Party/FreeRTOS/Source/timers.c ****                 /* Sanity check that the size of the structure used to declare a
 327:Middlewares/Third_Party/FreeRTOS/Source/timers.c ****                  * variable of type StaticTimer_t equals the size of the real timer
 328:Middlewares/Third_Party/FreeRTOS/Source/timers.c ****                  * structure. */
 329:Middlewares/Third_Party/FreeRTOS/Source/timers.c ****                 volatile size_t xSize = sizeof( StaticTimer_t );
 330:Middlewares/Third_Party/FreeRTOS/Source/timers.c ****                 configASSERT( xSize == sizeof( Timer_t ) );
 331:Middlewares/Third_Party/FreeRTOS/Source/timers.c ****                 ( void ) xSize; /* Keeps lint quiet when configASSERT() is not defined. */
 332:Middlewares/Third_Party/FreeRTOS/Source/timers.c ****             }
 333:Middlewares/Third_Party/FreeRTOS/Source/timers.c ****             #endif /* configASSERT_DEFINED */
 334:Middlewares/Third_Party/FreeRTOS/Source/timers.c **** 
 335:Middlewares/Third_Party/FreeRTOS/Source/timers.c ****             /* A pointer to a StaticTimer_t structure MUST be provided, use it. */
 336:Middlewares/Third_Party/FreeRTOS/Source/timers.c ****             configASSERT( pxTimerBuffer );
 337:Middlewares/Third_Party/FreeRTOS/Source/timers.c ****             pxNewTimer = ( Timer_t * ) pxTimerBuffer; /*lint !e740 !e9087 StaticTimer_t is a pointe
 338:Middlewares/Third_Party/FreeRTOS/Source/timers.c **** 
 339:Middlewares/Third_Party/FreeRTOS/Source/timers.c ****             if( pxNewTimer != NULL )
 340:Middlewares/Third_Party/FreeRTOS/Source/timers.c ****             {
 341:Middlewares/Third_Party/FreeRTOS/Source/timers.c ****                 /* Timers can be created statically or dynamically so note this
 342:Middlewares/Third_Party/FreeRTOS/Source/timers.c ****                  * timer was created statically in case it is later deleted.  The
 343:Middlewares/Third_Party/FreeRTOS/Source/timers.c ****                  * auto-reload bit may get set in prvInitialiseNewTimer(). */
 344:Middlewares/Third_Party/FreeRTOS/Source/timers.c ****                 pxNewTimer->ucStatus = tmrSTATUS_IS_STATICALLY_ALLOCATED;
 345:Middlewares/Third_Party/FreeRTOS/Source/timers.c **** 
 346:Middlewares/Third_Party/FreeRTOS/Source/timers.c ****                 prvInitialiseNewTimer( pcTimerName, xTimerPeriodInTicks, xAutoReload, pvTimerID, px
 347:Middlewares/Third_Party/FreeRTOS/Source/timers.c ****             }
 348:Middlewares/Third_Party/FreeRTOS/Source/timers.c **** 
 349:Middlewares/Third_Party/FreeRTOS/Source/timers.c ****             return pxNewTimer;
 350:Middlewares/Third_Party/FreeRTOS/Source/timers.c ****         }
 351:Middlewares/Third_Party/FreeRTOS/Source/timers.c **** 
 352:Middlewares/Third_Party/FreeRTOS/Source/timers.c ****     #endif /* configSUPPORT_STATIC_ALLOCATION */
 353:Middlewares/Third_Party/FreeRTOS/Source/timers.c **** /*-----------------------------------------------------------*/
 354:Middlewares/Third_Party/FreeRTOS/Source/timers.c **** 
 355:Middlewares/Third_Party/FreeRTOS/Source/timers.c ****     static void prvInitialiseNewTimer( const char * const pcTimerName, /*lint !e971 Unqualified cha
 356:Middlewares/Third_Party/FreeRTOS/Source/timers.c ****                                        const TickType_t xTimerPeriodInTicks,
 357:Middlewares/Third_Party/FreeRTOS/Source/timers.c ****                                        const BaseType_t xAutoReload,
 358:Middlewares/Third_Party/FreeRTOS/Source/timers.c ****                                        void * const pvTimerID,
 359:Middlewares/Third_Party/FreeRTOS/Source/timers.c ****                                        TimerCallbackFunction_t pxCallbackFunction,
 360:Middlewares/Third_Party/FreeRTOS/Source/timers.c ****                                        Timer_t * pxNewTimer )
 361:Middlewares/Third_Party/FreeRTOS/Source/timers.c ****     {
 362:Middlewares/Third_Party/FreeRTOS/Source/timers.c ****         /* 0 is not a valid value for xTimerPeriodInTicks. */
 363:Middlewares/Third_Party/FreeRTOS/Source/timers.c ****         configASSERT( ( xTimerPeriodInTicks > 0 ) );
 364:Middlewares/Third_Party/FreeRTOS/Source/timers.c **** 
 365:Middlewares/Third_Party/FreeRTOS/Source/timers.c ****         /* Ensure the infrastructure used by the timer service task has been
 366:Middlewares/Third_Party/FreeRTOS/Source/timers.c ****          * created/initialised. */
 367:Middlewares/Third_Party/FreeRTOS/Source/timers.c ****         prvCheckForValidListAndQueue();
 368:Middlewares/Third_Party/FreeRTOS/Source/timers.c **** 
 369:Middlewares/Third_Party/FreeRTOS/Source/timers.c ****         /* Initialise the timer structure members using the function
 370:Middlewares/Third_Party/FreeRTOS/Source/timers.c ****          * parameters. */
 371:Middlewares/Third_Party/FreeRTOS/Source/timers.c ****         pxNewTimer->pcTimerName = pcTimerName;
 372:Middlewares/Third_Party/FreeRTOS/Source/timers.c ****         pxNewTimer->xTimerPeriodInTicks = xTimerPeriodInTicks;
 373:Middlewares/Third_Party/FreeRTOS/Source/timers.c ****         pxNewTimer->pvTimerID = pvTimerID;
 374:Middlewares/Third_Party/FreeRTOS/Source/timers.c ****         pxNewTimer->pxCallbackFunction = pxCallbackFunction;
ARM GAS  C:\Users\Yasi\AppData\Local\Temp\ccUhEIlv.s 			page 8


 375:Middlewares/Third_Party/FreeRTOS/Source/timers.c ****         vListInitialiseItem( &( pxNewTimer->xTimerListItem ) );
 376:Middlewares/Third_Party/FreeRTOS/Source/timers.c **** 
 377:Middlewares/Third_Party/FreeRTOS/Source/timers.c ****         if( xAutoReload != pdFALSE )
 378:Middlewares/Third_Party/FreeRTOS/Source/timers.c ****         {
 379:Middlewares/Third_Party/FreeRTOS/Source/timers.c ****             pxNewTimer->ucStatus |= tmrSTATUS_IS_AUTORELOAD;
 380:Middlewares/Third_Party/FreeRTOS/Source/timers.c ****         }
 381:Middlewares/Third_Party/FreeRTOS/Source/timers.c **** 
 382:Middlewares/Third_Party/FreeRTOS/Source/timers.c ****         traceTIMER_CREATE( pxNewTimer );
 383:Middlewares/Third_Party/FreeRTOS/Source/timers.c ****     }
 384:Middlewares/Third_Party/FreeRTOS/Source/timers.c **** /*-----------------------------------------------------------*/
 385:Middlewares/Third_Party/FreeRTOS/Source/timers.c **** 
 386:Middlewares/Third_Party/FreeRTOS/Source/timers.c ****     BaseType_t xTimerGenericCommand( TimerHandle_t xTimer,
 387:Middlewares/Third_Party/FreeRTOS/Source/timers.c ****                                      const BaseType_t xCommandID,
 388:Middlewares/Third_Party/FreeRTOS/Source/timers.c ****                                      const TickType_t xOptionalValue,
 389:Middlewares/Third_Party/FreeRTOS/Source/timers.c ****                                      BaseType_t * const pxHigherPriorityTaskWoken,
 390:Middlewares/Third_Party/FreeRTOS/Source/timers.c ****                                      const TickType_t xTicksToWait )
 391:Middlewares/Third_Party/FreeRTOS/Source/timers.c ****     {
 392:Middlewares/Third_Party/FreeRTOS/Source/timers.c ****         BaseType_t xReturn = pdFAIL;
 393:Middlewares/Third_Party/FreeRTOS/Source/timers.c ****         DaemonTaskMessage_t xMessage;
 394:Middlewares/Third_Party/FreeRTOS/Source/timers.c **** 
 395:Middlewares/Third_Party/FreeRTOS/Source/timers.c ****         configASSERT( xTimer );
 396:Middlewares/Third_Party/FreeRTOS/Source/timers.c **** 
 397:Middlewares/Third_Party/FreeRTOS/Source/timers.c ****         /* Send a message to the timer service task to perform a particular action
 398:Middlewares/Third_Party/FreeRTOS/Source/timers.c ****          * on a particular timer definition. */
 399:Middlewares/Third_Party/FreeRTOS/Source/timers.c ****         if( xTimerQueue != NULL )
 400:Middlewares/Third_Party/FreeRTOS/Source/timers.c ****         {
 401:Middlewares/Third_Party/FreeRTOS/Source/timers.c ****             /* Send a command to the timer service task to start the xTimer timer. */
 402:Middlewares/Third_Party/FreeRTOS/Source/timers.c ****             xMessage.xMessageID = xCommandID;
 403:Middlewares/Third_Party/FreeRTOS/Source/timers.c ****             xMessage.u.xTimerParameters.xMessageValue = xOptionalValue;
 404:Middlewares/Third_Party/FreeRTOS/Source/timers.c ****             xMessage.u.xTimerParameters.pxTimer = xTimer;
 405:Middlewares/Third_Party/FreeRTOS/Source/timers.c **** 
 406:Middlewares/Third_Party/FreeRTOS/Source/timers.c ****             if( xCommandID < tmrFIRST_FROM_ISR_COMMAND )
 407:Middlewares/Third_Party/FreeRTOS/Source/timers.c ****             {
 408:Middlewares/Third_Party/FreeRTOS/Source/timers.c ****                 if( xTaskGetSchedulerState() == taskSCHEDULER_RUNNING )
 409:Middlewares/Third_Party/FreeRTOS/Source/timers.c ****                 {
 410:Middlewares/Third_Party/FreeRTOS/Source/timers.c ****                     xReturn = xQueueSendToBack( xTimerQueue, &xMessage, xTicksToWait );
 411:Middlewares/Third_Party/FreeRTOS/Source/timers.c ****                 }
 412:Middlewares/Third_Party/FreeRTOS/Source/timers.c ****                 else
 413:Middlewares/Third_Party/FreeRTOS/Source/timers.c ****                 {
 414:Middlewares/Third_Party/FreeRTOS/Source/timers.c ****                     xReturn = xQueueSendToBack( xTimerQueue, &xMessage, tmrNO_DELAY );
 415:Middlewares/Third_Party/FreeRTOS/Source/timers.c ****                 }
 416:Middlewares/Third_Party/FreeRTOS/Source/timers.c ****             }
 417:Middlewares/Third_Party/FreeRTOS/Source/timers.c ****             else
 418:Middlewares/Third_Party/FreeRTOS/Source/timers.c ****             {
 419:Middlewares/Third_Party/FreeRTOS/Source/timers.c ****                 xReturn = xQueueSendToBackFromISR( xTimerQueue, &xMessage, pxHigherPriorityTaskWoke
 420:Middlewares/Third_Party/FreeRTOS/Source/timers.c ****             }
 421:Middlewares/Third_Party/FreeRTOS/Source/timers.c **** 
 422:Middlewares/Third_Party/FreeRTOS/Source/timers.c ****             traceTIMER_COMMAND_SEND( xTimer, xCommandID, xOptionalValue, xReturn );
 423:Middlewares/Third_Party/FreeRTOS/Source/timers.c ****         }
 424:Middlewares/Third_Party/FreeRTOS/Source/timers.c ****         else
 425:Middlewares/Third_Party/FreeRTOS/Source/timers.c ****         {
 426:Middlewares/Third_Party/FreeRTOS/Source/timers.c ****             mtCOVERAGE_TEST_MARKER();
 427:Middlewares/Third_Party/FreeRTOS/Source/timers.c ****         }
 428:Middlewares/Third_Party/FreeRTOS/Source/timers.c **** 
 429:Middlewares/Third_Party/FreeRTOS/Source/timers.c ****         return xReturn;
 430:Middlewares/Third_Party/FreeRTOS/Source/timers.c ****     }
 431:Middlewares/Third_Party/FreeRTOS/Source/timers.c **** /*-----------------------------------------------------------*/
ARM GAS  C:\Users\Yasi\AppData\Local\Temp\ccUhEIlv.s 			page 9


 432:Middlewares/Third_Party/FreeRTOS/Source/timers.c **** 
 433:Middlewares/Third_Party/FreeRTOS/Source/timers.c ****     TaskHandle_t xTimerGetTimerDaemonTaskHandle( void )
 434:Middlewares/Third_Party/FreeRTOS/Source/timers.c ****     {
 435:Middlewares/Third_Party/FreeRTOS/Source/timers.c ****         /* If xTimerGetTimerDaemonTaskHandle() is called before the scheduler has been
 436:Middlewares/Third_Party/FreeRTOS/Source/timers.c ****          * started, then xTimerTaskHandle will be NULL. */
 437:Middlewares/Third_Party/FreeRTOS/Source/timers.c ****         configASSERT( ( xTimerTaskHandle != NULL ) );
 438:Middlewares/Third_Party/FreeRTOS/Source/timers.c ****         return xTimerTaskHandle;
 439:Middlewares/Third_Party/FreeRTOS/Source/timers.c ****     }
 440:Middlewares/Third_Party/FreeRTOS/Source/timers.c **** /*-----------------------------------------------------------*/
 441:Middlewares/Third_Party/FreeRTOS/Source/timers.c **** 
 442:Middlewares/Third_Party/FreeRTOS/Source/timers.c ****     TickType_t xTimerGetPeriod( TimerHandle_t xTimer )
 443:Middlewares/Third_Party/FreeRTOS/Source/timers.c ****     {
 444:Middlewares/Third_Party/FreeRTOS/Source/timers.c ****         Timer_t * pxTimer = xTimer;
 445:Middlewares/Third_Party/FreeRTOS/Source/timers.c **** 
 446:Middlewares/Third_Party/FreeRTOS/Source/timers.c ****         configASSERT( xTimer );
 447:Middlewares/Third_Party/FreeRTOS/Source/timers.c ****         return pxTimer->xTimerPeriodInTicks;
 448:Middlewares/Third_Party/FreeRTOS/Source/timers.c ****     }
 449:Middlewares/Third_Party/FreeRTOS/Source/timers.c **** /*-----------------------------------------------------------*/
 450:Middlewares/Third_Party/FreeRTOS/Source/timers.c **** 
 451:Middlewares/Third_Party/FreeRTOS/Source/timers.c ****     void vTimerSetReloadMode( TimerHandle_t xTimer,
 452:Middlewares/Third_Party/FreeRTOS/Source/timers.c ****                               const BaseType_t xAutoReload )
 453:Middlewares/Third_Party/FreeRTOS/Source/timers.c ****     {
 454:Middlewares/Third_Party/FreeRTOS/Source/timers.c ****         Timer_t * pxTimer = xTimer;
 455:Middlewares/Third_Party/FreeRTOS/Source/timers.c **** 
 456:Middlewares/Third_Party/FreeRTOS/Source/timers.c ****         configASSERT( xTimer );
 457:Middlewares/Third_Party/FreeRTOS/Source/timers.c ****         taskENTER_CRITICAL();
 458:Middlewares/Third_Party/FreeRTOS/Source/timers.c ****         {
 459:Middlewares/Third_Party/FreeRTOS/Source/timers.c ****             if( xAutoReload != pdFALSE )
 460:Middlewares/Third_Party/FreeRTOS/Source/timers.c ****             {
 461:Middlewares/Third_Party/FreeRTOS/Source/timers.c ****                 pxTimer->ucStatus |= tmrSTATUS_IS_AUTORELOAD;
 462:Middlewares/Third_Party/FreeRTOS/Source/timers.c ****             }
 463:Middlewares/Third_Party/FreeRTOS/Source/timers.c ****             else
 464:Middlewares/Third_Party/FreeRTOS/Source/timers.c ****             {
 465:Middlewares/Third_Party/FreeRTOS/Source/timers.c ****                 pxTimer->ucStatus &= ( ( uint8_t ) ~tmrSTATUS_IS_AUTORELOAD );
 466:Middlewares/Third_Party/FreeRTOS/Source/timers.c ****             }
 467:Middlewares/Third_Party/FreeRTOS/Source/timers.c ****         }
 468:Middlewares/Third_Party/FreeRTOS/Source/timers.c ****         taskEXIT_CRITICAL();
 469:Middlewares/Third_Party/FreeRTOS/Source/timers.c ****     }
 470:Middlewares/Third_Party/FreeRTOS/Source/timers.c **** /*-----------------------------------------------------------*/
 471:Middlewares/Third_Party/FreeRTOS/Source/timers.c **** 
 472:Middlewares/Third_Party/FreeRTOS/Source/timers.c ****     BaseType_t xTimerGetReloadMode( TimerHandle_t xTimer )
 473:Middlewares/Third_Party/FreeRTOS/Source/timers.c ****     {
 474:Middlewares/Third_Party/FreeRTOS/Source/timers.c ****         Timer_t * pxTimer = xTimer;
 475:Middlewares/Third_Party/FreeRTOS/Source/timers.c ****         BaseType_t xReturn;
 476:Middlewares/Third_Party/FreeRTOS/Source/timers.c **** 
 477:Middlewares/Third_Party/FreeRTOS/Source/timers.c ****         configASSERT( xTimer );
 478:Middlewares/Third_Party/FreeRTOS/Source/timers.c ****         taskENTER_CRITICAL();
 479:Middlewares/Third_Party/FreeRTOS/Source/timers.c ****         {
 480:Middlewares/Third_Party/FreeRTOS/Source/timers.c ****             if( ( pxTimer->ucStatus & tmrSTATUS_IS_AUTORELOAD ) == 0 )
 481:Middlewares/Third_Party/FreeRTOS/Source/timers.c ****             {
 482:Middlewares/Third_Party/FreeRTOS/Source/timers.c ****                 /* Not an auto-reload timer. */
 483:Middlewares/Third_Party/FreeRTOS/Source/timers.c ****                 xReturn = pdFALSE;
 484:Middlewares/Third_Party/FreeRTOS/Source/timers.c ****             }
 485:Middlewares/Third_Party/FreeRTOS/Source/timers.c ****             else
 486:Middlewares/Third_Party/FreeRTOS/Source/timers.c ****             {
 487:Middlewares/Third_Party/FreeRTOS/Source/timers.c ****                 /* Is an auto-reload timer. */
 488:Middlewares/Third_Party/FreeRTOS/Source/timers.c ****                 xReturn = pdTRUE;
ARM GAS  C:\Users\Yasi\AppData\Local\Temp\ccUhEIlv.s 			page 10


 489:Middlewares/Third_Party/FreeRTOS/Source/timers.c ****             }
 490:Middlewares/Third_Party/FreeRTOS/Source/timers.c ****         }
 491:Middlewares/Third_Party/FreeRTOS/Source/timers.c ****         taskEXIT_CRITICAL();
 492:Middlewares/Third_Party/FreeRTOS/Source/timers.c **** 
 493:Middlewares/Third_Party/FreeRTOS/Source/timers.c ****         return xReturn;
 494:Middlewares/Third_Party/FreeRTOS/Source/timers.c ****     }
 495:Middlewares/Third_Party/FreeRTOS/Source/timers.c **** 
 496:Middlewares/Third_Party/FreeRTOS/Source/timers.c ****     UBaseType_t uxTimerGetReloadMode( TimerHandle_t xTimer )
 497:Middlewares/Third_Party/FreeRTOS/Source/timers.c ****     {
 498:Middlewares/Third_Party/FreeRTOS/Source/timers.c ****         return ( UBaseType_t ) xTimerGetReloadMode( xTimer );
 499:Middlewares/Third_Party/FreeRTOS/Source/timers.c ****     }
 500:Middlewares/Third_Party/FreeRTOS/Source/timers.c **** /*-----------------------------------------------------------*/
 501:Middlewares/Third_Party/FreeRTOS/Source/timers.c **** 
 502:Middlewares/Third_Party/FreeRTOS/Source/timers.c ****     TickType_t xTimerGetExpiryTime( TimerHandle_t xTimer )
 503:Middlewares/Third_Party/FreeRTOS/Source/timers.c ****     {
 504:Middlewares/Third_Party/FreeRTOS/Source/timers.c ****         Timer_t * pxTimer = xTimer;
 505:Middlewares/Third_Party/FreeRTOS/Source/timers.c ****         TickType_t xReturn;
 506:Middlewares/Third_Party/FreeRTOS/Source/timers.c **** 
 507:Middlewares/Third_Party/FreeRTOS/Source/timers.c ****         configASSERT( xTimer );
 508:Middlewares/Third_Party/FreeRTOS/Source/timers.c ****         xReturn = listGET_LIST_ITEM_VALUE( &( pxTimer->xTimerListItem ) );
 509:Middlewares/Third_Party/FreeRTOS/Source/timers.c ****         return xReturn;
 510:Middlewares/Third_Party/FreeRTOS/Source/timers.c ****     }
 511:Middlewares/Third_Party/FreeRTOS/Source/timers.c **** /*-----------------------------------------------------------*/
 512:Middlewares/Third_Party/FreeRTOS/Source/timers.c **** 
 513:Middlewares/Third_Party/FreeRTOS/Source/timers.c ****     const char * pcTimerGetName( TimerHandle_t xTimer ) /*lint !e971 Unqualified char types are all
 514:Middlewares/Third_Party/FreeRTOS/Source/timers.c ****     {
 515:Middlewares/Third_Party/FreeRTOS/Source/timers.c ****         Timer_t * pxTimer = xTimer;
 516:Middlewares/Third_Party/FreeRTOS/Source/timers.c **** 
 517:Middlewares/Third_Party/FreeRTOS/Source/timers.c ****         configASSERT( xTimer );
 518:Middlewares/Third_Party/FreeRTOS/Source/timers.c ****         return pxTimer->pcTimerName;
 519:Middlewares/Third_Party/FreeRTOS/Source/timers.c ****     }
 520:Middlewares/Third_Party/FreeRTOS/Source/timers.c **** /*-----------------------------------------------------------*/
 521:Middlewares/Third_Party/FreeRTOS/Source/timers.c **** 
 522:Middlewares/Third_Party/FreeRTOS/Source/timers.c ****     static void prvReloadTimer( Timer_t * const pxTimer,
 523:Middlewares/Third_Party/FreeRTOS/Source/timers.c ****                                 TickType_t xExpiredTime,
 524:Middlewares/Third_Party/FreeRTOS/Source/timers.c ****                                 const TickType_t xTimeNow )
 525:Middlewares/Third_Party/FreeRTOS/Source/timers.c ****     {
 526:Middlewares/Third_Party/FreeRTOS/Source/timers.c ****         /* Insert the timer into the appropriate list for the next expiry time.
 527:Middlewares/Third_Party/FreeRTOS/Source/timers.c ****          * If the next expiry time has already passed, advance the expiry time,
 528:Middlewares/Third_Party/FreeRTOS/Source/timers.c ****          * call the callback function, and try again. */
 529:Middlewares/Third_Party/FreeRTOS/Source/timers.c ****         while( prvInsertTimerInActiveList( pxTimer, ( xExpiredTime + pxTimer->xTimerPeriodInTicks )
 530:Middlewares/Third_Party/FreeRTOS/Source/timers.c ****         {
 531:Middlewares/Third_Party/FreeRTOS/Source/timers.c ****             /* Advance the expiry time. */
 532:Middlewares/Third_Party/FreeRTOS/Source/timers.c ****             xExpiredTime += pxTimer->xTimerPeriodInTicks;
 533:Middlewares/Third_Party/FreeRTOS/Source/timers.c **** 
 534:Middlewares/Third_Party/FreeRTOS/Source/timers.c ****             /* Call the timer callback. */
 535:Middlewares/Third_Party/FreeRTOS/Source/timers.c ****             traceTIMER_EXPIRED( pxTimer );
 536:Middlewares/Third_Party/FreeRTOS/Source/timers.c ****             pxTimer->pxCallbackFunction( ( TimerHandle_t ) pxTimer );
 537:Middlewares/Third_Party/FreeRTOS/Source/timers.c ****         }
 538:Middlewares/Third_Party/FreeRTOS/Source/timers.c ****     }
 539:Middlewares/Third_Party/FreeRTOS/Source/timers.c **** /*-----------------------------------------------------------*/
 540:Middlewares/Third_Party/FreeRTOS/Source/timers.c **** 
 541:Middlewares/Third_Party/FreeRTOS/Source/timers.c ****     static void prvProcessExpiredTimer( const TickType_t xNextExpireTime,
 542:Middlewares/Third_Party/FreeRTOS/Source/timers.c ****                                         const TickType_t xTimeNow )
 543:Middlewares/Third_Party/FreeRTOS/Source/timers.c ****     {
 544:Middlewares/Third_Party/FreeRTOS/Source/timers.c ****         Timer_t * const pxTimer = ( Timer_t * ) listGET_OWNER_OF_HEAD_ENTRY( pxCurrentTimerList ); 
 545:Middlewares/Third_Party/FreeRTOS/Source/timers.c **** 
ARM GAS  C:\Users\Yasi\AppData\Local\Temp\ccUhEIlv.s 			page 11


 546:Middlewares/Third_Party/FreeRTOS/Source/timers.c ****         /* Remove the timer from the list of active timers.  A check has already
 547:Middlewares/Third_Party/FreeRTOS/Source/timers.c ****          * been performed to ensure the list is not empty. */
 548:Middlewares/Third_Party/FreeRTOS/Source/timers.c **** 
 549:Middlewares/Third_Party/FreeRTOS/Source/timers.c ****         ( void ) uxListRemove( &( pxTimer->xTimerListItem ) );
 550:Middlewares/Third_Party/FreeRTOS/Source/timers.c **** 
 551:Middlewares/Third_Party/FreeRTOS/Source/timers.c ****         /* If the timer is an auto-reload timer then calculate the next
 552:Middlewares/Third_Party/FreeRTOS/Source/timers.c ****          * expiry time and re-insert the timer in the list of active timers. */
 553:Middlewares/Third_Party/FreeRTOS/Source/timers.c ****         if( ( pxTimer->ucStatus & tmrSTATUS_IS_AUTORELOAD ) != 0 )
 554:Middlewares/Third_Party/FreeRTOS/Source/timers.c ****         {
 555:Middlewares/Third_Party/FreeRTOS/Source/timers.c ****             prvReloadTimer( pxTimer, xNextExpireTime, xTimeNow );
 556:Middlewares/Third_Party/FreeRTOS/Source/timers.c ****         }
 557:Middlewares/Third_Party/FreeRTOS/Source/timers.c ****         else
 558:Middlewares/Third_Party/FreeRTOS/Source/timers.c ****         {
 559:Middlewares/Third_Party/FreeRTOS/Source/timers.c ****             pxTimer->ucStatus &= ( ( uint8_t ) ~tmrSTATUS_IS_ACTIVE );
 560:Middlewares/Third_Party/FreeRTOS/Source/timers.c ****         }
 561:Middlewares/Third_Party/FreeRTOS/Source/timers.c **** 
 562:Middlewares/Third_Party/FreeRTOS/Source/timers.c ****         /* Call the timer callback. */
 563:Middlewares/Third_Party/FreeRTOS/Source/timers.c ****         traceTIMER_EXPIRED( pxTimer );
 564:Middlewares/Third_Party/FreeRTOS/Source/timers.c ****         pxTimer->pxCallbackFunction( ( TimerHandle_t ) pxTimer );
 565:Middlewares/Third_Party/FreeRTOS/Source/timers.c ****     }
 566:Middlewares/Third_Party/FreeRTOS/Source/timers.c **** /*-----------------------------------------------------------*/
 567:Middlewares/Third_Party/FreeRTOS/Source/timers.c **** 
 568:Middlewares/Third_Party/FreeRTOS/Source/timers.c ****     static portTASK_FUNCTION( prvTimerTask, pvParameters )
 569:Middlewares/Third_Party/FreeRTOS/Source/timers.c ****     {
 570:Middlewares/Third_Party/FreeRTOS/Source/timers.c ****         TickType_t xNextExpireTime;
 571:Middlewares/Third_Party/FreeRTOS/Source/timers.c ****         BaseType_t xListWasEmpty;
 572:Middlewares/Third_Party/FreeRTOS/Source/timers.c **** 
 573:Middlewares/Third_Party/FreeRTOS/Source/timers.c ****         /* Just to avoid compiler warnings. */
 574:Middlewares/Third_Party/FreeRTOS/Source/timers.c ****         ( void ) pvParameters;
 575:Middlewares/Third_Party/FreeRTOS/Source/timers.c **** 
 576:Middlewares/Third_Party/FreeRTOS/Source/timers.c ****         #if ( configUSE_DAEMON_TASK_STARTUP_HOOK == 1 )
 577:Middlewares/Third_Party/FreeRTOS/Source/timers.c ****         {
 578:Middlewares/Third_Party/FreeRTOS/Source/timers.c ****             extern void vApplicationDaemonTaskStartupHook( void );
 579:Middlewares/Third_Party/FreeRTOS/Source/timers.c **** 
 580:Middlewares/Third_Party/FreeRTOS/Source/timers.c ****             /* Allow the application writer to execute some code in the context of
 581:Middlewares/Third_Party/FreeRTOS/Source/timers.c ****              * this task at the point the task starts executing.  This is useful if the
 582:Middlewares/Third_Party/FreeRTOS/Source/timers.c ****              * application includes initialisation code that would benefit from
 583:Middlewares/Third_Party/FreeRTOS/Source/timers.c ****              * executing after the scheduler has been started. */
 584:Middlewares/Third_Party/FreeRTOS/Source/timers.c ****             vApplicationDaemonTaskStartupHook();
 585:Middlewares/Third_Party/FreeRTOS/Source/timers.c ****         }
 586:Middlewares/Third_Party/FreeRTOS/Source/timers.c ****         #endif /* configUSE_DAEMON_TASK_STARTUP_HOOK */
 587:Middlewares/Third_Party/FreeRTOS/Source/timers.c **** 
 588:Middlewares/Third_Party/FreeRTOS/Source/timers.c ****         for( ; ; )
 589:Middlewares/Third_Party/FreeRTOS/Source/timers.c ****         {
 590:Middlewares/Third_Party/FreeRTOS/Source/timers.c ****             /* Query the timers list to see if it contains any timers, and if so,
 591:Middlewares/Third_Party/FreeRTOS/Source/timers.c ****              * obtain the time at which the next timer will expire. */
 592:Middlewares/Third_Party/FreeRTOS/Source/timers.c ****             xNextExpireTime = prvGetNextExpireTime( &xListWasEmpty );
 593:Middlewares/Third_Party/FreeRTOS/Source/timers.c **** 
 594:Middlewares/Third_Party/FreeRTOS/Source/timers.c ****             /* If a timer has expired, process it.  Otherwise, block this task
 595:Middlewares/Third_Party/FreeRTOS/Source/timers.c ****              * until either a timer does expire, or a command is received. */
 596:Middlewares/Third_Party/FreeRTOS/Source/timers.c ****             prvProcessTimerOrBlockTask( xNextExpireTime, xListWasEmpty );
 597:Middlewares/Third_Party/FreeRTOS/Source/timers.c **** 
 598:Middlewares/Third_Party/FreeRTOS/Source/timers.c ****             /* Empty the command queue. */
 599:Middlewares/Third_Party/FreeRTOS/Source/timers.c ****             prvProcessReceivedCommands();
 600:Middlewares/Third_Party/FreeRTOS/Source/timers.c ****         }
 601:Middlewares/Third_Party/FreeRTOS/Source/timers.c ****     }
 602:Middlewares/Third_Party/FreeRTOS/Source/timers.c **** /*-----------------------------------------------------------*/
ARM GAS  C:\Users\Yasi\AppData\Local\Temp\ccUhEIlv.s 			page 12


 603:Middlewares/Third_Party/FreeRTOS/Source/timers.c **** 
 604:Middlewares/Third_Party/FreeRTOS/Source/timers.c ****     static void prvProcessTimerOrBlockTask( const TickType_t xNextExpireTime,
 605:Middlewares/Third_Party/FreeRTOS/Source/timers.c ****                                             BaseType_t xListWasEmpty )
 606:Middlewares/Third_Party/FreeRTOS/Source/timers.c ****     {
 607:Middlewares/Third_Party/FreeRTOS/Source/timers.c ****         TickType_t xTimeNow;
 608:Middlewares/Third_Party/FreeRTOS/Source/timers.c ****         BaseType_t xTimerListsWereSwitched;
 609:Middlewares/Third_Party/FreeRTOS/Source/timers.c **** 
 610:Middlewares/Third_Party/FreeRTOS/Source/timers.c ****         vTaskSuspendAll();
 611:Middlewares/Third_Party/FreeRTOS/Source/timers.c ****         {
 612:Middlewares/Third_Party/FreeRTOS/Source/timers.c ****             /* Obtain the time now to make an assessment as to whether the timer
 613:Middlewares/Third_Party/FreeRTOS/Source/timers.c ****              * has expired or not.  If obtaining the time causes the lists to switch
 614:Middlewares/Third_Party/FreeRTOS/Source/timers.c ****              * then don't process this timer as any timers that remained in the list
 615:Middlewares/Third_Party/FreeRTOS/Source/timers.c ****              * when the lists were switched will have been processed within the
 616:Middlewares/Third_Party/FreeRTOS/Source/timers.c ****              * prvSampleTimeNow() function. */
 617:Middlewares/Third_Party/FreeRTOS/Source/timers.c ****             xTimeNow = prvSampleTimeNow( &xTimerListsWereSwitched );
 618:Middlewares/Third_Party/FreeRTOS/Source/timers.c **** 
 619:Middlewares/Third_Party/FreeRTOS/Source/timers.c ****             if( xTimerListsWereSwitched == pdFALSE )
 620:Middlewares/Third_Party/FreeRTOS/Source/timers.c ****             {
 621:Middlewares/Third_Party/FreeRTOS/Source/timers.c ****                 /* The tick count has not overflowed, has the timer expired? */
 622:Middlewares/Third_Party/FreeRTOS/Source/timers.c ****                 if( ( xListWasEmpty == pdFALSE ) && ( xNextExpireTime <= xTimeNow ) )
 623:Middlewares/Third_Party/FreeRTOS/Source/timers.c ****                 {
 624:Middlewares/Third_Party/FreeRTOS/Source/timers.c ****                     ( void ) xTaskResumeAll();
 625:Middlewares/Third_Party/FreeRTOS/Source/timers.c ****                     prvProcessExpiredTimer( xNextExpireTime, xTimeNow );
 626:Middlewares/Third_Party/FreeRTOS/Source/timers.c ****                 }
 627:Middlewares/Third_Party/FreeRTOS/Source/timers.c ****                 else
 628:Middlewares/Third_Party/FreeRTOS/Source/timers.c ****                 {
 629:Middlewares/Third_Party/FreeRTOS/Source/timers.c ****                     /* The tick count has not overflowed, and the next expire
 630:Middlewares/Third_Party/FreeRTOS/Source/timers.c ****                      * time has not been reached yet.  This task should therefore
 631:Middlewares/Third_Party/FreeRTOS/Source/timers.c ****                      * block to wait for the next expire time or a command to be
 632:Middlewares/Third_Party/FreeRTOS/Source/timers.c ****                      * received - whichever comes first.  The following line cannot
 633:Middlewares/Third_Party/FreeRTOS/Source/timers.c ****                      * be reached unless xNextExpireTime > xTimeNow, except in the
 634:Middlewares/Third_Party/FreeRTOS/Source/timers.c ****                      * case when the current timer list is empty. */
 635:Middlewares/Third_Party/FreeRTOS/Source/timers.c ****                     if( xListWasEmpty != pdFALSE )
 636:Middlewares/Third_Party/FreeRTOS/Source/timers.c ****                     {
 637:Middlewares/Third_Party/FreeRTOS/Source/timers.c ****                         /* The current timer list is empty - is the overflow list
 638:Middlewares/Third_Party/FreeRTOS/Source/timers.c ****                          * also empty? */
 639:Middlewares/Third_Party/FreeRTOS/Source/timers.c ****                         xListWasEmpty = listLIST_IS_EMPTY( pxOverflowTimerList );
 640:Middlewares/Third_Party/FreeRTOS/Source/timers.c ****                     }
 641:Middlewares/Third_Party/FreeRTOS/Source/timers.c **** 
 642:Middlewares/Third_Party/FreeRTOS/Source/timers.c ****                     vQueueWaitForMessageRestricted( xTimerQueue, ( xNextExpireTime - xTimeNow ), xL
 643:Middlewares/Third_Party/FreeRTOS/Source/timers.c **** 
 644:Middlewares/Third_Party/FreeRTOS/Source/timers.c ****                     if( xTaskResumeAll() == pdFALSE )
 645:Middlewares/Third_Party/FreeRTOS/Source/timers.c ****                     {
 646:Middlewares/Third_Party/FreeRTOS/Source/timers.c ****                         /* Yield to wait for either a command to arrive, or the
 647:Middlewares/Third_Party/FreeRTOS/Source/timers.c ****                          * block time to expire.  If a command arrived between the
 648:Middlewares/Third_Party/FreeRTOS/Source/timers.c ****                          * critical section being exited and this yield then the yield
 649:Middlewares/Third_Party/FreeRTOS/Source/timers.c ****                          * will not cause the task to block. */
 650:Middlewares/Third_Party/FreeRTOS/Source/timers.c ****                         portYIELD_WITHIN_API();
 651:Middlewares/Third_Party/FreeRTOS/Source/timers.c ****                     }
 652:Middlewares/Third_Party/FreeRTOS/Source/timers.c ****                     else
 653:Middlewares/Third_Party/FreeRTOS/Source/timers.c ****                     {
 654:Middlewares/Third_Party/FreeRTOS/Source/timers.c ****                         mtCOVERAGE_TEST_MARKER();
 655:Middlewares/Third_Party/FreeRTOS/Source/timers.c ****                     }
 656:Middlewares/Third_Party/FreeRTOS/Source/timers.c ****                 }
 657:Middlewares/Third_Party/FreeRTOS/Source/timers.c ****             }
 658:Middlewares/Third_Party/FreeRTOS/Source/timers.c ****             else
 659:Middlewares/Third_Party/FreeRTOS/Source/timers.c ****             {
ARM GAS  C:\Users\Yasi\AppData\Local\Temp\ccUhEIlv.s 			page 13


 660:Middlewares/Third_Party/FreeRTOS/Source/timers.c ****                 ( void ) xTaskResumeAll();
 661:Middlewares/Third_Party/FreeRTOS/Source/timers.c ****             }
 662:Middlewares/Third_Party/FreeRTOS/Source/timers.c ****         }
 663:Middlewares/Third_Party/FreeRTOS/Source/timers.c ****     }
 664:Middlewares/Third_Party/FreeRTOS/Source/timers.c **** /*-----------------------------------------------------------*/
 665:Middlewares/Third_Party/FreeRTOS/Source/timers.c **** 
 666:Middlewares/Third_Party/FreeRTOS/Source/timers.c ****     static TickType_t prvGetNextExpireTime( BaseType_t * const pxListWasEmpty )
 667:Middlewares/Third_Party/FreeRTOS/Source/timers.c ****     {
  27              		.loc 1 667 5 view -0
  28              		.cfi_startproc
  29              		@ args = 0, pretend = 0, frame = 0
  30              		@ frame_needed = 0, uses_anonymous_args = 0
  31              		@ link register save eliminated.
 668:Middlewares/Third_Party/FreeRTOS/Source/timers.c ****         TickType_t xNextExpireTime;
  32              		.loc 1 668 9 view .LVU1
 669:Middlewares/Third_Party/FreeRTOS/Source/timers.c **** 
 670:Middlewares/Third_Party/FreeRTOS/Source/timers.c ****         /* Timers are listed in expiry time order, with the head of the list
 671:Middlewares/Third_Party/FreeRTOS/Source/timers.c ****          * referencing the task that will expire first.  Obtain the time at which
 672:Middlewares/Third_Party/FreeRTOS/Source/timers.c ****          * the timer with the nearest expiry time will expire.  If there are no
 673:Middlewares/Third_Party/FreeRTOS/Source/timers.c ****          * active timers then just set the next expire time to 0.  That will cause
 674:Middlewares/Third_Party/FreeRTOS/Source/timers.c ****          * this task to unblock when the tick count overflows, at which point the
 675:Middlewares/Third_Party/FreeRTOS/Source/timers.c ****          * timer lists will be switched and the next expiry time can be
 676:Middlewares/Third_Party/FreeRTOS/Source/timers.c ****          * re-assessed.  */
 677:Middlewares/Third_Party/FreeRTOS/Source/timers.c ****         *pxListWasEmpty = listLIST_IS_EMPTY( pxCurrentTimerList );
  33              		.loc 1 677 9 view .LVU2
  34              		.loc 1 677 27 is_stmt 0 view .LVU3
  35 0000 074B     		ldr	r3, .L6
  36 0002 1A68     		ldr	r2, [r3]
  37 0004 1368     		ldr	r3, [r2]
  38 0006 002B     		cmp	r3, #0
  39 0008 06D1     		bne	.L4
  40              		.loc 1 677 27 discriminator 1 view .LVU4
  41 000a 0133     		adds	r3, r3, #1
  42              	.L2:
  43              		.loc 1 677 25 discriminator 4 view .LVU5
  44 000c 0360     		str	r3, [r0]
 678:Middlewares/Third_Party/FreeRTOS/Source/timers.c **** 
 679:Middlewares/Third_Party/FreeRTOS/Source/timers.c ****         if( *pxListWasEmpty == pdFALSE )
  45              		.loc 1 679 9 is_stmt 1 view .LVU6
  46              		.loc 1 679 11 is_stmt 0 view .LVU7
  47 000e 002B     		cmp	r3, #0
  48 0010 04D1     		bne	.L5
 680:Middlewares/Third_Party/FreeRTOS/Source/timers.c ****         {
 681:Middlewares/Third_Party/FreeRTOS/Source/timers.c ****             xNextExpireTime = listGET_ITEM_VALUE_OF_HEAD_ENTRY( pxCurrentTimerList );
  49              		.loc 1 681 13 is_stmt 1 view .LVU8
  50              		.loc 1 681 31 is_stmt 0 view .LVU9
  51 0012 D368     		ldr	r3, [r2, #12]
  52              		.loc 1 681 29 view .LVU10
  53 0014 1868     		ldr	r0, [r3]
  54              	.LVL1:
  55              	.L1:
 682:Middlewares/Third_Party/FreeRTOS/Source/timers.c ****         }
 683:Middlewares/Third_Party/FreeRTOS/Source/timers.c ****         else
 684:Middlewares/Third_Party/FreeRTOS/Source/timers.c ****         {
 685:Middlewares/Third_Party/FreeRTOS/Source/timers.c ****             /* Ensure the task unblocks when the tick count rolls over. */
 686:Middlewares/Third_Party/FreeRTOS/Source/timers.c ****             xNextExpireTime = ( TickType_t ) 0U;
 687:Middlewares/Third_Party/FreeRTOS/Source/timers.c ****         }
ARM GAS  C:\Users\Yasi\AppData\Local\Temp\ccUhEIlv.s 			page 14


 688:Middlewares/Third_Party/FreeRTOS/Source/timers.c **** 
 689:Middlewares/Third_Party/FreeRTOS/Source/timers.c ****         return xNextExpireTime;
 690:Middlewares/Third_Party/FreeRTOS/Source/timers.c ****     }
  56              		.loc 1 690 5 view .LVU11
  57              		@ sp needed
  58 0016 7047     		bx	lr
  59              	.LVL2:
  60              	.L4:
 677:Middlewares/Third_Party/FreeRTOS/Source/timers.c **** 
  61              		.loc 1 677 27 discriminator 2 view .LVU12
  62 0018 0023     		movs	r3, #0
  63 001a F7E7     		b	.L2
  64              	.L5:
 686:Middlewares/Third_Party/FreeRTOS/Source/timers.c ****         }
  65              		.loc 1 686 29 view .LVU13
  66 001c 0020     		movs	r0, #0
  67              	.LVL3:
 689:Middlewares/Third_Party/FreeRTOS/Source/timers.c ****     }
  68              		.loc 1 689 9 is_stmt 1 view .LVU14
 689:Middlewares/Third_Party/FreeRTOS/Source/timers.c ****     }
  69              		.loc 1 689 16 is_stmt 0 view .LVU15
  70 001e FAE7     		b	.L1
  71              	.L7:
  72              		.align	2
  73              	.L6:
  74 0020 00000000 		.word	pxCurrentTimerList
  75              		.cfi_endproc
  76              	.LFE16:
  78              		.section	.text.prvInsertTimerInActiveList,"ax",%progbits
  79              		.align	1
  80              		.syntax unified
  81              		.code	16
  82              		.thumb_func
  84              	prvInsertTimerInActiveList:
  85              	.LVL4:
  86              	.LFB18:
 691:Middlewares/Third_Party/FreeRTOS/Source/timers.c **** /*-----------------------------------------------------------*/
 692:Middlewares/Third_Party/FreeRTOS/Source/timers.c **** 
 693:Middlewares/Third_Party/FreeRTOS/Source/timers.c ****     static TickType_t prvSampleTimeNow( BaseType_t * const pxTimerListsWereSwitched )
 694:Middlewares/Third_Party/FreeRTOS/Source/timers.c ****     {
 695:Middlewares/Third_Party/FreeRTOS/Source/timers.c ****         TickType_t xTimeNow;
 696:Middlewares/Third_Party/FreeRTOS/Source/timers.c ****         PRIVILEGED_DATA static TickType_t xLastTime = ( TickType_t ) 0U; /*lint !e956 Variable is o
 697:Middlewares/Third_Party/FreeRTOS/Source/timers.c **** 
 698:Middlewares/Third_Party/FreeRTOS/Source/timers.c ****         xTimeNow = xTaskGetTickCount();
 699:Middlewares/Third_Party/FreeRTOS/Source/timers.c **** 
 700:Middlewares/Third_Party/FreeRTOS/Source/timers.c ****         if( xTimeNow < xLastTime )
 701:Middlewares/Third_Party/FreeRTOS/Source/timers.c ****         {
 702:Middlewares/Third_Party/FreeRTOS/Source/timers.c ****             prvSwitchTimerLists();
 703:Middlewares/Third_Party/FreeRTOS/Source/timers.c ****             *pxTimerListsWereSwitched = pdTRUE;
 704:Middlewares/Third_Party/FreeRTOS/Source/timers.c ****         }
 705:Middlewares/Third_Party/FreeRTOS/Source/timers.c ****         else
 706:Middlewares/Third_Party/FreeRTOS/Source/timers.c ****         {
 707:Middlewares/Third_Party/FreeRTOS/Source/timers.c ****             *pxTimerListsWereSwitched = pdFALSE;
 708:Middlewares/Third_Party/FreeRTOS/Source/timers.c ****         }
 709:Middlewares/Third_Party/FreeRTOS/Source/timers.c **** 
 710:Middlewares/Third_Party/FreeRTOS/Source/timers.c ****         xLastTime = xTimeNow;
 711:Middlewares/Third_Party/FreeRTOS/Source/timers.c **** 
ARM GAS  C:\Users\Yasi\AppData\Local\Temp\ccUhEIlv.s 			page 15


 712:Middlewares/Third_Party/FreeRTOS/Source/timers.c ****         return xTimeNow;
 713:Middlewares/Third_Party/FreeRTOS/Source/timers.c ****     }
 714:Middlewares/Third_Party/FreeRTOS/Source/timers.c **** /*-----------------------------------------------------------*/
 715:Middlewares/Third_Party/FreeRTOS/Source/timers.c **** 
 716:Middlewares/Third_Party/FreeRTOS/Source/timers.c ****     static BaseType_t prvInsertTimerInActiveList( Timer_t * const pxTimer,
 717:Middlewares/Third_Party/FreeRTOS/Source/timers.c ****                                                   const TickType_t xNextExpiryTime,
 718:Middlewares/Third_Party/FreeRTOS/Source/timers.c ****                                                   const TickType_t xTimeNow,
 719:Middlewares/Third_Party/FreeRTOS/Source/timers.c ****                                                   const TickType_t xCommandTime )
 720:Middlewares/Third_Party/FreeRTOS/Source/timers.c ****     {
  87              		.loc 1 720 5 is_stmt 1 view -0
  88              		.cfi_startproc
  89              		@ args = 0, pretend = 0, frame = 0
  90              		@ frame_needed = 0, uses_anonymous_args = 0
  91              		.loc 1 720 5 is_stmt 0 view .LVU17
  92 0000 10B5     		push	{r4, lr}
  93              	.LCFI0:
  94              		.cfi_def_cfa_offset 8
  95              		.cfi_offset 4, -8
  96              		.cfi_offset 14, -4
 721:Middlewares/Third_Party/FreeRTOS/Source/timers.c ****         BaseType_t xProcessTimerNow = pdFALSE;
  97              		.loc 1 721 9 is_stmt 1 view .LVU18
  98              	.LVL5:
 722:Middlewares/Third_Party/FreeRTOS/Source/timers.c **** 
 723:Middlewares/Third_Party/FreeRTOS/Source/timers.c ****         listSET_LIST_ITEM_VALUE( &( pxTimer->xTimerListItem ), xNextExpiryTime );
  99              		.loc 1 723 9 view .LVU19
 100 0002 4160     		str	r1, [r0, #4]
 724:Middlewares/Third_Party/FreeRTOS/Source/timers.c ****         listSET_LIST_ITEM_OWNER( &( pxTimer->xTimerListItem ), pxTimer );
 101              		.loc 1 724 9 view .LVU20
 102 0004 0061     		str	r0, [r0, #16]
 725:Middlewares/Third_Party/FreeRTOS/Source/timers.c **** 
 726:Middlewares/Third_Party/FreeRTOS/Source/timers.c ****         if( xNextExpiryTime <= xTimeNow )
 103              		.loc 1 726 9 view .LVU21
 104              		.loc 1 726 11 is_stmt 0 view .LVU22
 105 0006 9142     		cmp	r1, r2
 106 0008 0CD8     		bhi	.L9
 727:Middlewares/Third_Party/FreeRTOS/Source/timers.c ****         {
 728:Middlewares/Third_Party/FreeRTOS/Source/timers.c ****             /* Has the expiry time elapsed between the command to start/reset a
 729:Middlewares/Third_Party/FreeRTOS/Source/timers.c ****              * timer was issued, and the time the command was processed? */
 730:Middlewares/Third_Party/FreeRTOS/Source/timers.c ****             if( ( ( TickType_t ) ( xTimeNow - xCommandTime ) ) >= pxTimer->xTimerPeriodInTicks ) /*
 107              		.loc 1 730 13 is_stmt 1 view .LVU23
 108              		.loc 1 730 45 is_stmt 0 view .LVU24
 109 000a D21A     		subs	r2, r2, r3
 110              	.LVL6:
 111              		.loc 1 730 74 view .LVU25
 112 000c 8369     		ldr	r3, [r0, #24]
 113              	.LVL7:
 114              		.loc 1 730 15 view .LVU26
 115 000e 9A42     		cmp	r2, r3
 116 0010 01D3     		bcc	.L14
 731:Middlewares/Third_Party/FreeRTOS/Source/timers.c ****             {
 732:Middlewares/Third_Party/FreeRTOS/Source/timers.c ****                 /* The time between a command being issued and the command being
 733:Middlewares/Third_Party/FreeRTOS/Source/timers.c ****                  * processed actually exceeds the timers period.  */
 734:Middlewares/Third_Party/FreeRTOS/Source/timers.c ****                 xProcessTimerNow = pdTRUE;
 117              		.loc 1 734 34 view .LVU27
 118 0012 0120     		movs	r0, #1
 119              	.LVL8:
 120              	.L8:
ARM GAS  C:\Users\Yasi\AppData\Local\Temp\ccUhEIlv.s 			page 16


 735:Middlewares/Third_Party/FreeRTOS/Source/timers.c ****             }
 736:Middlewares/Third_Party/FreeRTOS/Source/timers.c ****             else
 737:Middlewares/Third_Party/FreeRTOS/Source/timers.c ****             {
 738:Middlewares/Third_Party/FreeRTOS/Source/timers.c ****                 vListInsert( pxOverflowTimerList, &( pxTimer->xTimerListItem ) );
 739:Middlewares/Third_Party/FreeRTOS/Source/timers.c ****             }
 740:Middlewares/Third_Party/FreeRTOS/Source/timers.c ****         }
 741:Middlewares/Third_Party/FreeRTOS/Source/timers.c ****         else
 742:Middlewares/Third_Party/FreeRTOS/Source/timers.c ****         {
 743:Middlewares/Third_Party/FreeRTOS/Source/timers.c ****             if( ( xTimeNow < xCommandTime ) && ( xNextExpiryTime >= xCommandTime ) )
 744:Middlewares/Third_Party/FreeRTOS/Source/timers.c ****             {
 745:Middlewares/Third_Party/FreeRTOS/Source/timers.c ****                 /* If, since the command was issued, the tick count has overflowed
 746:Middlewares/Third_Party/FreeRTOS/Source/timers.c ****                  * but the expiry time has not, then the timer must have already passed
 747:Middlewares/Third_Party/FreeRTOS/Source/timers.c ****                  * its expiry time and should be processed immediately. */
 748:Middlewares/Third_Party/FreeRTOS/Source/timers.c ****                 xProcessTimerNow = pdTRUE;
 749:Middlewares/Third_Party/FreeRTOS/Source/timers.c ****             }
 750:Middlewares/Third_Party/FreeRTOS/Source/timers.c ****             else
 751:Middlewares/Third_Party/FreeRTOS/Source/timers.c ****             {
 752:Middlewares/Third_Party/FreeRTOS/Source/timers.c ****                 vListInsert( pxCurrentTimerList, &( pxTimer->xTimerListItem ) );
 753:Middlewares/Third_Party/FreeRTOS/Source/timers.c ****             }
 754:Middlewares/Third_Party/FreeRTOS/Source/timers.c ****         }
 755:Middlewares/Third_Party/FreeRTOS/Source/timers.c **** 
 756:Middlewares/Third_Party/FreeRTOS/Source/timers.c ****         return xProcessTimerNow;
 757:Middlewares/Third_Party/FreeRTOS/Source/timers.c ****     }
 121              		.loc 1 757 5 view .LVU28
 122              		@ sp needed
 123 0014 10BD     		pop	{r4, pc}
 124              	.LVL9:
 125              	.L14:
 738:Middlewares/Third_Party/FreeRTOS/Source/timers.c ****             }
 126              		.loc 1 738 17 is_stmt 1 view .LVU29
 127 0016 011D     		adds	r1, r0, #4
 128              	.LVL10:
 738:Middlewares/Third_Party/FreeRTOS/Source/timers.c ****             }
 129              		.loc 1 738 17 is_stmt 0 view .LVU30
 130 0018 094B     		ldr	r3, .L15
 131 001a 1868     		ldr	r0, [r3]
 132              	.LVL11:
 738:Middlewares/Third_Party/FreeRTOS/Source/timers.c ****             }
 133              		.loc 1 738 17 view .LVU31
 134 001c FFF7FEFF 		bl	vListInsert
 135              	.LVL12:
 721:Middlewares/Third_Party/FreeRTOS/Source/timers.c **** 
 136              		.loc 1 721 20 view .LVU32
 137 0020 0020     		movs	r0, #0
 138 0022 F7E7     		b	.L8
 139              	.LVL13:
 140              	.L9:
 743:Middlewares/Third_Party/FreeRTOS/Source/timers.c ****             {
 141              		.loc 1 743 13 is_stmt 1 view .LVU33
 743:Middlewares/Third_Party/FreeRTOS/Source/timers.c ****             {
 142              		.loc 1 743 15 is_stmt 0 view .LVU34
 143 0024 9A42     		cmp	r2, r3
 144 0026 01D2     		bcs	.L11
 743:Middlewares/Third_Party/FreeRTOS/Source/timers.c ****             {
 145              		.loc 1 743 45 discriminator 1 view .LVU35
 146 0028 9942     		cmp	r1, r3
 147 002a 06D2     		bcs	.L13
ARM GAS  C:\Users\Yasi\AppData\Local\Temp\ccUhEIlv.s 			page 17


 148              	.L11:
 752:Middlewares/Third_Party/FreeRTOS/Source/timers.c ****             }
 149              		.loc 1 752 17 is_stmt 1 view .LVU36
 150 002c 011D     		adds	r1, r0, #4
 151              	.LVL14:
 752:Middlewares/Third_Party/FreeRTOS/Source/timers.c ****             }
 152              		.loc 1 752 17 is_stmt 0 view .LVU37
 153 002e 054B     		ldr	r3, .L15+4
 154              	.LVL15:
 752:Middlewares/Third_Party/FreeRTOS/Source/timers.c ****             }
 155              		.loc 1 752 17 view .LVU38
 156 0030 1868     		ldr	r0, [r3]
 157              	.LVL16:
 752:Middlewares/Third_Party/FreeRTOS/Source/timers.c ****             }
 158              		.loc 1 752 17 view .LVU39
 159 0032 FFF7FEFF 		bl	vListInsert
 160              	.LVL17:
 721:Middlewares/Third_Party/FreeRTOS/Source/timers.c **** 
 161              		.loc 1 721 20 view .LVU40
 162 0036 0020     		movs	r0, #0
 163 0038 ECE7     		b	.L8
 164              	.LVL18:
 165              	.L13:
 748:Middlewares/Third_Party/FreeRTOS/Source/timers.c ****             }
 166              		.loc 1 748 34 view .LVU41
 167 003a 0120     		movs	r0, #1
 168              	.LVL19:
 756:Middlewares/Third_Party/FreeRTOS/Source/timers.c ****     }
 169              		.loc 1 756 9 is_stmt 1 view .LVU42
 756:Middlewares/Third_Party/FreeRTOS/Source/timers.c ****     }
 170              		.loc 1 756 16 is_stmt 0 view .LVU43
 171 003c EAE7     		b	.L8
 172              	.L16:
 173 003e C046     		.align	2
 174              	.L15:
 175 0040 00000000 		.word	pxOverflowTimerList
 176 0044 00000000 		.word	pxCurrentTimerList
 177              		.cfi_endproc
 178              	.LFE18:
 180              		.section	.text.prvReloadTimer,"ax",%progbits
 181              		.align	1
 182              		.syntax unified
 183              		.code	16
 184              		.thumb_func
 186              	prvReloadTimer:
 187              	.LVL20:
 188              	.LFB12:
 525:Middlewares/Third_Party/FreeRTOS/Source/timers.c ****         /* Insert the timer into the appropriate list for the next expiry time.
 189              		.loc 1 525 5 is_stmt 1 view -0
 190              		.cfi_startproc
 191              		@ args = 0, pretend = 0, frame = 0
 192              		@ frame_needed = 0, uses_anonymous_args = 0
 525:Middlewares/Third_Party/FreeRTOS/Source/timers.c ****         /* Insert the timer into the appropriate list for the next expiry time.
 193              		.loc 1 525 5 is_stmt 0 view .LVU45
 194 0000 70B5     		push	{r4, r5, r6, lr}
 195              	.LCFI1:
 196              		.cfi_def_cfa_offset 16
ARM GAS  C:\Users\Yasi\AppData\Local\Temp\ccUhEIlv.s 			page 18


 197              		.cfi_offset 4, -16
 198              		.cfi_offset 5, -12
 199              		.cfi_offset 6, -8
 200              		.cfi_offset 14, -4
 201 0002 0400     		movs	r4, r0
 202 0004 0D00     		movs	r5, r1
 203 0006 1600     		movs	r6, r2
 529:Middlewares/Third_Party/FreeRTOS/Source/timers.c ****         {
 204              		.loc 1 529 9 is_stmt 1 view .LVU46
 529:Middlewares/Third_Party/FreeRTOS/Source/timers.c ****         {
 205              		.loc 1 529 14 is_stmt 0 view .LVU47
 206 0008 04E0     		b	.L18
 207              	.LVL21:
 208              	.L19:
 532:Middlewares/Third_Party/FreeRTOS/Source/timers.c **** 
 209              		.loc 1 532 13 is_stmt 1 view .LVU48
 532:Middlewares/Third_Party/FreeRTOS/Source/timers.c **** 
 210              		.loc 1 532 36 is_stmt 0 view .LVU49
 211 000a A369     		ldr	r3, [r4, #24]
 532:Middlewares/Third_Party/FreeRTOS/Source/timers.c **** 
 212              		.loc 1 532 26 view .LVU50
 213 000c ED18     		adds	r5, r5, r3
 214              	.LVL22:
 535:Middlewares/Third_Party/FreeRTOS/Source/timers.c ****             pxTimer->pxCallbackFunction( ( TimerHandle_t ) pxTimer );
 215              		.loc 1 535 42 is_stmt 1 view .LVU51
 536:Middlewares/Third_Party/FreeRTOS/Source/timers.c ****         }
 216              		.loc 1 536 13 view .LVU52
 536:Middlewares/Third_Party/FreeRTOS/Source/timers.c ****         }
 217              		.loc 1 536 20 is_stmt 0 view .LVU53
 218 000e 236A     		ldr	r3, [r4, #32]
 536:Middlewares/Third_Party/FreeRTOS/Source/timers.c ****         }
 219              		.loc 1 536 13 view .LVU54
 220 0010 2000     		movs	r0, r4
 221 0012 9847     		blx	r3
 222              	.LVL23:
 223              	.L18:
 529:Middlewares/Third_Party/FreeRTOS/Source/timers.c ****         {
 224              		.loc 1 529 127 is_stmt 1 view .LVU55
 529:Middlewares/Third_Party/FreeRTOS/Source/timers.c ****         {
 225              		.loc 1 529 77 is_stmt 0 view .LVU56
 226 0014 A169     		ldr	r1, [r4, #24]
 529:Middlewares/Third_Party/FreeRTOS/Source/timers.c ****         {
 227              		.loc 1 529 16 view .LVU57
 228 0016 4919     		adds	r1, r1, r5
 229 0018 2B00     		movs	r3, r5
 230 001a 3200     		movs	r2, r6
 231 001c 2000     		movs	r0, r4
 232 001e FFF7FEFF 		bl	prvInsertTimerInActiveList
 233              	.LVL24:
 529:Middlewares/Third_Party/FreeRTOS/Source/timers.c ****         {
 234              		.loc 1 529 127 discriminator 1 view .LVU58
 235 0022 0028     		cmp	r0, #0
 236 0024 F1D1     		bne	.L19
 538:Middlewares/Third_Party/FreeRTOS/Source/timers.c **** /*-----------------------------------------------------------*/
 237              		.loc 1 538 5 view .LVU59
 238              		@ sp needed
 239              	.LVL25:
ARM GAS  C:\Users\Yasi\AppData\Local\Temp\ccUhEIlv.s 			page 19


 240              	.LVL26:
 241              	.LVL27:
 538:Middlewares/Third_Party/FreeRTOS/Source/timers.c **** /*-----------------------------------------------------------*/
 242              		.loc 1 538 5 view .LVU60
 243 0026 70BD     		pop	{r4, r5, r6, pc}
 244              		.cfi_endproc
 245              	.LFE12:
 247              		.section	.text.prvProcessExpiredTimer,"ax",%progbits
 248              		.align	1
 249              		.syntax unified
 250              		.code	16
 251              		.thumb_func
 253              	prvProcessExpiredTimer:
 254              	.LVL28:
 255              	.LFB13:
 543:Middlewares/Third_Party/FreeRTOS/Source/timers.c ****         Timer_t * const pxTimer = ( Timer_t * ) listGET_OWNER_OF_HEAD_ENTRY( pxCurrentTimerList ); 
 256              		.loc 1 543 5 is_stmt 1 view -0
 257              		.cfi_startproc
 258              		@ args = 0, pretend = 0, frame = 0
 259              		@ frame_needed = 0, uses_anonymous_args = 0
 543:Middlewares/Third_Party/FreeRTOS/Source/timers.c ****         Timer_t * const pxTimer = ( Timer_t * ) listGET_OWNER_OF_HEAD_ENTRY( pxCurrentTimerList ); 
 260              		.loc 1 543 5 is_stmt 0 view .LVU62
 261 0000 70B5     		push	{r4, r5, r6, lr}
 262              	.LCFI2:
 263              		.cfi_def_cfa_offset 16
 264              		.cfi_offset 4, -16
 265              		.cfi_offset 5, -12
 266              		.cfi_offset 6, -8
 267              		.cfi_offset 14, -4
 268 0002 0500     		movs	r5, r0
 269 0004 0E00     		movs	r6, r1
 544:Middlewares/Third_Party/FreeRTOS/Source/timers.c **** 
 270              		.loc 1 544 9 is_stmt 1 view .LVU63
 544:Middlewares/Third_Party/FreeRTOS/Source/timers.c **** 
 271              		.loc 1 544 49 is_stmt 0 view .LVU64
 272 0006 0C4B     		ldr	r3, .L24
 273 0008 1B68     		ldr	r3, [r3]
 274 000a DB68     		ldr	r3, [r3, #12]
 544:Middlewares/Third_Party/FreeRTOS/Source/timers.c **** 
 275              		.loc 1 544 25 view .LVU65
 276 000c DC68     		ldr	r4, [r3, #12]
 277              	.LVL29:
 549:Middlewares/Third_Party/FreeRTOS/Source/timers.c **** 
 278              		.loc 1 549 9 is_stmt 1 view .LVU66
 549:Middlewares/Third_Party/FreeRTOS/Source/timers.c **** 
 279              		.loc 1 549 18 is_stmt 0 view .LVU67
 280 000e 201D     		adds	r0, r4, #4
 281              	.LVL30:
 549:Middlewares/Third_Party/FreeRTOS/Source/timers.c **** 
 282              		.loc 1 549 18 view .LVU68
 283 0010 FFF7FEFF 		bl	uxListRemove
 284              	.LVL31:
 553:Middlewares/Third_Party/FreeRTOS/Source/timers.c ****         {
 285              		.loc 1 553 9 is_stmt 1 view .LVU69
 553:Middlewares/Third_Party/FreeRTOS/Source/timers.c ****         {
 286              		.loc 1 553 22 is_stmt 0 view .LVU70
 287 0014 2823     		movs	r3, #40
ARM GAS  C:\Users\Yasi\AppData\Local\Temp\ccUhEIlv.s 			page 20


 288 0016 E35C     		ldrb	r3, [r4, r3]
 553:Middlewares/Third_Party/FreeRTOS/Source/timers.c ****         {
 289              		.loc 1 553 11 view .LVU71
 290 0018 5A07     		lsls	r2, r3, #29
 291 001a 07D4     		bmi	.L23
 559:Middlewares/Third_Party/FreeRTOS/Source/timers.c ****         }
 292              		.loc 1 559 13 is_stmt 1 view .LVU72
 559:Middlewares/Third_Party/FreeRTOS/Source/timers.c ****         }
 293              		.loc 1 559 31 is_stmt 0 view .LVU73
 294 001c 0122     		movs	r2, #1
 295 001e 9343     		bics	r3, r2
 296 0020 2732     		adds	r2, r2, #39
 297 0022 A354     		strb	r3, [r4, r2]
 298              	.L22:
 563:Middlewares/Third_Party/FreeRTOS/Source/timers.c ****         pxTimer->pxCallbackFunction( ( TimerHandle_t ) pxTimer );
 299              		.loc 1 563 38 is_stmt 1 view .LVU74
 564:Middlewares/Third_Party/FreeRTOS/Source/timers.c ****     }
 300              		.loc 1 564 9 view .LVU75
 564:Middlewares/Third_Party/FreeRTOS/Source/timers.c ****     }
 301              		.loc 1 564 16 is_stmt 0 view .LVU76
 302 0024 236A     		ldr	r3, [r4, #32]
 564:Middlewares/Third_Party/FreeRTOS/Source/timers.c ****     }
 303              		.loc 1 564 9 view .LVU77
 304 0026 2000     		movs	r0, r4
 305 0028 9847     		blx	r3
 306              	.LVL32:
 565:Middlewares/Third_Party/FreeRTOS/Source/timers.c **** /*-----------------------------------------------------------*/
 307              		.loc 1 565 5 view .LVU78
 308              		@ sp needed
 309              	.LVL33:
 310              	.LVL34:
 311              	.LVL35:
 565:Middlewares/Third_Party/FreeRTOS/Source/timers.c **** /*-----------------------------------------------------------*/
 312              		.loc 1 565 5 view .LVU79
 313 002a 70BD     		pop	{r4, r5, r6, pc}
 314              	.LVL36:
 315              	.L23:
 555:Middlewares/Third_Party/FreeRTOS/Source/timers.c ****         }
 316              		.loc 1 555 13 is_stmt 1 view .LVU80
 317 002c 3200     		movs	r2, r6
 318 002e 2900     		movs	r1, r5
 319 0030 2000     		movs	r0, r4
 320 0032 FFF7FEFF 		bl	prvReloadTimer
 321              	.LVL37:
 322 0036 F5E7     		b	.L22
 323              	.L25:
 324              		.align	2
 325              	.L24:
 326 0038 00000000 		.word	pxCurrentTimerList
 327              		.cfi_endproc
 328              	.LFE13:
 330              		.section	.text.prvSwitchTimerLists,"ax",%progbits
 331              		.align	1
 332              		.syntax unified
 333              		.code	16
 334              		.thumb_func
 336              	prvSwitchTimerLists:
ARM GAS  C:\Users\Yasi\AppData\Local\Temp\ccUhEIlv.s 			page 21


 337              	.LFB20:
 758:Middlewares/Third_Party/FreeRTOS/Source/timers.c **** /*-----------------------------------------------------------*/
 759:Middlewares/Third_Party/FreeRTOS/Source/timers.c **** 
 760:Middlewares/Third_Party/FreeRTOS/Source/timers.c ****     static void prvProcessReceivedCommands( void )
 761:Middlewares/Third_Party/FreeRTOS/Source/timers.c ****     {
 762:Middlewares/Third_Party/FreeRTOS/Source/timers.c ****         DaemonTaskMessage_t xMessage;
 763:Middlewares/Third_Party/FreeRTOS/Source/timers.c ****         Timer_t * pxTimer;
 764:Middlewares/Third_Party/FreeRTOS/Source/timers.c ****         BaseType_t xTimerListsWereSwitched;
 765:Middlewares/Third_Party/FreeRTOS/Source/timers.c ****         TickType_t xTimeNow;
 766:Middlewares/Third_Party/FreeRTOS/Source/timers.c **** 
 767:Middlewares/Third_Party/FreeRTOS/Source/timers.c ****         while( xQueueReceive( xTimerQueue, &xMessage, tmrNO_DELAY ) != pdFAIL ) /*lint !e603 xMessa
 768:Middlewares/Third_Party/FreeRTOS/Source/timers.c ****         {
 769:Middlewares/Third_Party/FreeRTOS/Source/timers.c ****             #if ( INCLUDE_xTimerPendFunctionCall == 1 )
 770:Middlewares/Third_Party/FreeRTOS/Source/timers.c ****             {
 771:Middlewares/Third_Party/FreeRTOS/Source/timers.c ****                 /* Negative commands are pended function calls rather than timer
 772:Middlewares/Third_Party/FreeRTOS/Source/timers.c ****                  * commands. */
 773:Middlewares/Third_Party/FreeRTOS/Source/timers.c ****                 if( xMessage.xMessageID < ( BaseType_t ) 0 )
 774:Middlewares/Third_Party/FreeRTOS/Source/timers.c ****                 {
 775:Middlewares/Third_Party/FreeRTOS/Source/timers.c ****                     const CallbackParameters_t * const pxCallback = &( xMessage.u.xCallbackParamete
 776:Middlewares/Third_Party/FreeRTOS/Source/timers.c **** 
 777:Middlewares/Third_Party/FreeRTOS/Source/timers.c ****                     /* The timer uses the xCallbackParameters member to request a
 778:Middlewares/Third_Party/FreeRTOS/Source/timers.c ****                      * callback be executed.  Check the callback is not NULL. */
 779:Middlewares/Third_Party/FreeRTOS/Source/timers.c ****                     configASSERT( pxCallback );
 780:Middlewares/Third_Party/FreeRTOS/Source/timers.c **** 
 781:Middlewares/Third_Party/FreeRTOS/Source/timers.c ****                     /* Call the function. */
 782:Middlewares/Third_Party/FreeRTOS/Source/timers.c ****                     pxCallback->pxCallbackFunction( pxCallback->pvParameter1, pxCallback->ulParamet
 783:Middlewares/Third_Party/FreeRTOS/Source/timers.c ****                 }
 784:Middlewares/Third_Party/FreeRTOS/Source/timers.c ****                 else
 785:Middlewares/Third_Party/FreeRTOS/Source/timers.c ****                 {
 786:Middlewares/Third_Party/FreeRTOS/Source/timers.c ****                     mtCOVERAGE_TEST_MARKER();
 787:Middlewares/Third_Party/FreeRTOS/Source/timers.c ****                 }
 788:Middlewares/Third_Party/FreeRTOS/Source/timers.c ****             }
 789:Middlewares/Third_Party/FreeRTOS/Source/timers.c ****             #endif /* INCLUDE_xTimerPendFunctionCall */
 790:Middlewares/Third_Party/FreeRTOS/Source/timers.c **** 
 791:Middlewares/Third_Party/FreeRTOS/Source/timers.c ****             /* Commands that are positive are timer commands rather than pended
 792:Middlewares/Third_Party/FreeRTOS/Source/timers.c ****              * function calls. */
 793:Middlewares/Third_Party/FreeRTOS/Source/timers.c ****             if( xMessage.xMessageID >= ( BaseType_t ) 0 )
 794:Middlewares/Third_Party/FreeRTOS/Source/timers.c ****             {
 795:Middlewares/Third_Party/FreeRTOS/Source/timers.c ****                 /* The messages uses the xTimerParameters member to work on a
 796:Middlewares/Third_Party/FreeRTOS/Source/timers.c ****                  * software timer. */
 797:Middlewares/Third_Party/FreeRTOS/Source/timers.c ****                 pxTimer = xMessage.u.xTimerParameters.pxTimer;
 798:Middlewares/Third_Party/FreeRTOS/Source/timers.c **** 
 799:Middlewares/Third_Party/FreeRTOS/Source/timers.c ****                 if( listIS_CONTAINED_WITHIN( NULL, &( pxTimer->xTimerListItem ) ) == pdFALSE ) /*li
 800:Middlewares/Third_Party/FreeRTOS/Source/timers.c ****                 {
 801:Middlewares/Third_Party/FreeRTOS/Source/timers.c ****                     /* The timer is in a list, remove it. */
 802:Middlewares/Third_Party/FreeRTOS/Source/timers.c ****                     ( void ) uxListRemove( &( pxTimer->xTimerListItem ) );
 803:Middlewares/Third_Party/FreeRTOS/Source/timers.c ****                 }
 804:Middlewares/Third_Party/FreeRTOS/Source/timers.c ****                 else
 805:Middlewares/Third_Party/FreeRTOS/Source/timers.c ****                 {
 806:Middlewares/Third_Party/FreeRTOS/Source/timers.c ****                     mtCOVERAGE_TEST_MARKER();
 807:Middlewares/Third_Party/FreeRTOS/Source/timers.c ****                 }
 808:Middlewares/Third_Party/FreeRTOS/Source/timers.c **** 
 809:Middlewares/Third_Party/FreeRTOS/Source/timers.c ****                 traceTIMER_COMMAND_RECEIVED( pxTimer, xMessage.xMessageID, xMessage.u.xTimerParamet
 810:Middlewares/Third_Party/FreeRTOS/Source/timers.c **** 
 811:Middlewares/Third_Party/FreeRTOS/Source/timers.c ****                 /* In this case the xTimerListsWereSwitched parameter is not used, but
 812:Middlewares/Third_Party/FreeRTOS/Source/timers.c ****                  *  it must be present in the function call.  prvSampleTimeNow() must be
 813:Middlewares/Third_Party/FreeRTOS/Source/timers.c ****                  *  called after the message is received from xTimerQueue so there is no
ARM GAS  C:\Users\Yasi\AppData\Local\Temp\ccUhEIlv.s 			page 22


 814:Middlewares/Third_Party/FreeRTOS/Source/timers.c ****                  *  possibility of a higher priority task adding a message to the message
 815:Middlewares/Third_Party/FreeRTOS/Source/timers.c ****                  *  queue with a time that is ahead of the timer daemon task (because it
 816:Middlewares/Third_Party/FreeRTOS/Source/timers.c ****                  *  pre-empted the timer daemon task after the xTimeNow value was set). */
 817:Middlewares/Third_Party/FreeRTOS/Source/timers.c ****                 xTimeNow = prvSampleTimeNow( &xTimerListsWereSwitched );
 818:Middlewares/Third_Party/FreeRTOS/Source/timers.c **** 
 819:Middlewares/Third_Party/FreeRTOS/Source/timers.c ****                 switch( xMessage.xMessageID )
 820:Middlewares/Third_Party/FreeRTOS/Source/timers.c ****                 {
 821:Middlewares/Third_Party/FreeRTOS/Source/timers.c ****                     case tmrCOMMAND_START:
 822:Middlewares/Third_Party/FreeRTOS/Source/timers.c ****                     case tmrCOMMAND_START_FROM_ISR:
 823:Middlewares/Third_Party/FreeRTOS/Source/timers.c ****                     case tmrCOMMAND_RESET:
 824:Middlewares/Third_Party/FreeRTOS/Source/timers.c ****                     case tmrCOMMAND_RESET_FROM_ISR:
 825:Middlewares/Third_Party/FreeRTOS/Source/timers.c ****                         /* Start or restart a timer. */
 826:Middlewares/Third_Party/FreeRTOS/Source/timers.c ****                         pxTimer->ucStatus |= tmrSTATUS_IS_ACTIVE;
 827:Middlewares/Third_Party/FreeRTOS/Source/timers.c **** 
 828:Middlewares/Third_Party/FreeRTOS/Source/timers.c ****                         if( prvInsertTimerInActiveList( pxTimer, xMessage.u.xTimerParameters.xMessa
 829:Middlewares/Third_Party/FreeRTOS/Source/timers.c ****                         {
 830:Middlewares/Third_Party/FreeRTOS/Source/timers.c ****                             /* The timer expired before it was added to the active
 831:Middlewares/Third_Party/FreeRTOS/Source/timers.c ****                              * timer list.  Process it now. */
 832:Middlewares/Third_Party/FreeRTOS/Source/timers.c ****                             if( ( pxTimer->ucStatus & tmrSTATUS_IS_AUTORELOAD ) != 0 )
 833:Middlewares/Third_Party/FreeRTOS/Source/timers.c ****                             {
 834:Middlewares/Third_Party/FreeRTOS/Source/timers.c ****                                 prvReloadTimer( pxTimer, xMessage.u.xTimerParameters.xMessageValue 
 835:Middlewares/Third_Party/FreeRTOS/Source/timers.c ****                             }
 836:Middlewares/Third_Party/FreeRTOS/Source/timers.c ****                             else
 837:Middlewares/Third_Party/FreeRTOS/Source/timers.c ****                             {
 838:Middlewares/Third_Party/FreeRTOS/Source/timers.c ****                                 pxTimer->ucStatus &= ( ( uint8_t ) ~tmrSTATUS_IS_ACTIVE );
 839:Middlewares/Third_Party/FreeRTOS/Source/timers.c ****                             }
 840:Middlewares/Third_Party/FreeRTOS/Source/timers.c **** 
 841:Middlewares/Third_Party/FreeRTOS/Source/timers.c ****                             /* Call the timer callback. */
 842:Middlewares/Third_Party/FreeRTOS/Source/timers.c ****                             traceTIMER_EXPIRED( pxTimer );
 843:Middlewares/Third_Party/FreeRTOS/Source/timers.c ****                             pxTimer->pxCallbackFunction( ( TimerHandle_t ) pxTimer );
 844:Middlewares/Third_Party/FreeRTOS/Source/timers.c ****                         }
 845:Middlewares/Third_Party/FreeRTOS/Source/timers.c ****                         else
 846:Middlewares/Third_Party/FreeRTOS/Source/timers.c ****                         {
 847:Middlewares/Third_Party/FreeRTOS/Source/timers.c ****                             mtCOVERAGE_TEST_MARKER();
 848:Middlewares/Third_Party/FreeRTOS/Source/timers.c ****                         }
 849:Middlewares/Third_Party/FreeRTOS/Source/timers.c **** 
 850:Middlewares/Third_Party/FreeRTOS/Source/timers.c ****                         break;
 851:Middlewares/Third_Party/FreeRTOS/Source/timers.c **** 
 852:Middlewares/Third_Party/FreeRTOS/Source/timers.c ****                     case tmrCOMMAND_STOP:
 853:Middlewares/Third_Party/FreeRTOS/Source/timers.c ****                     case tmrCOMMAND_STOP_FROM_ISR:
 854:Middlewares/Third_Party/FreeRTOS/Source/timers.c ****                         /* The timer has already been removed from the active list. */
 855:Middlewares/Third_Party/FreeRTOS/Source/timers.c ****                         pxTimer->ucStatus &= ( ( uint8_t ) ~tmrSTATUS_IS_ACTIVE );
 856:Middlewares/Third_Party/FreeRTOS/Source/timers.c ****                         break;
 857:Middlewares/Third_Party/FreeRTOS/Source/timers.c **** 
 858:Middlewares/Third_Party/FreeRTOS/Source/timers.c ****                     case tmrCOMMAND_CHANGE_PERIOD:
 859:Middlewares/Third_Party/FreeRTOS/Source/timers.c ****                     case tmrCOMMAND_CHANGE_PERIOD_FROM_ISR:
 860:Middlewares/Third_Party/FreeRTOS/Source/timers.c ****                         pxTimer->ucStatus |= tmrSTATUS_IS_ACTIVE;
 861:Middlewares/Third_Party/FreeRTOS/Source/timers.c ****                         pxTimer->xTimerPeriodInTicks = xMessage.u.xTimerParameters.xMessageValue;
 862:Middlewares/Third_Party/FreeRTOS/Source/timers.c ****                         configASSERT( ( pxTimer->xTimerPeriodInTicks > 0 ) );
 863:Middlewares/Third_Party/FreeRTOS/Source/timers.c **** 
 864:Middlewares/Third_Party/FreeRTOS/Source/timers.c ****                         /* The new period does not really have a reference, and can
 865:Middlewares/Third_Party/FreeRTOS/Source/timers.c ****                          * be longer or shorter than the old one.  The command time is
 866:Middlewares/Third_Party/FreeRTOS/Source/timers.c ****                          * therefore set to the current time, and as the period cannot
 867:Middlewares/Third_Party/FreeRTOS/Source/timers.c ****                          * be zero the next expiry time can only be in the future,
 868:Middlewares/Third_Party/FreeRTOS/Source/timers.c ****                          * meaning (unlike for the xTimerStart() case above) there is
 869:Middlewares/Third_Party/FreeRTOS/Source/timers.c ****                          * no fail case that needs to be handled here. */
 870:Middlewares/Third_Party/FreeRTOS/Source/timers.c ****                         ( void ) prvInsertTimerInActiveList( pxTimer, ( xTimeNow + pxTimer->xTimerP
ARM GAS  C:\Users\Yasi\AppData\Local\Temp\ccUhEIlv.s 			page 23


 871:Middlewares/Third_Party/FreeRTOS/Source/timers.c ****                         break;
 872:Middlewares/Third_Party/FreeRTOS/Source/timers.c **** 
 873:Middlewares/Third_Party/FreeRTOS/Source/timers.c ****                     case tmrCOMMAND_DELETE:
 874:Middlewares/Third_Party/FreeRTOS/Source/timers.c ****                         #if ( configSUPPORT_DYNAMIC_ALLOCATION == 1 )
 875:Middlewares/Third_Party/FreeRTOS/Source/timers.c ****                         {
 876:Middlewares/Third_Party/FreeRTOS/Source/timers.c ****                             /* The timer has already been removed from the active list,
 877:Middlewares/Third_Party/FreeRTOS/Source/timers.c ****                              * just free up the memory if the memory was dynamically
 878:Middlewares/Third_Party/FreeRTOS/Source/timers.c ****                              * allocated. */
 879:Middlewares/Third_Party/FreeRTOS/Source/timers.c ****                             if( ( pxTimer->ucStatus & tmrSTATUS_IS_STATICALLY_ALLOCATED ) == ( uint
 880:Middlewares/Third_Party/FreeRTOS/Source/timers.c ****                             {
 881:Middlewares/Third_Party/FreeRTOS/Source/timers.c ****                                 vPortFree( pxTimer );
 882:Middlewares/Third_Party/FreeRTOS/Source/timers.c ****                             }
 883:Middlewares/Third_Party/FreeRTOS/Source/timers.c ****                             else
 884:Middlewares/Third_Party/FreeRTOS/Source/timers.c ****                             {
 885:Middlewares/Third_Party/FreeRTOS/Source/timers.c ****                                 pxTimer->ucStatus &= ( ( uint8_t ) ~tmrSTATUS_IS_ACTIVE );
 886:Middlewares/Third_Party/FreeRTOS/Source/timers.c ****                             }
 887:Middlewares/Third_Party/FreeRTOS/Source/timers.c ****                         }
 888:Middlewares/Third_Party/FreeRTOS/Source/timers.c ****                         #else /* if ( configSUPPORT_DYNAMIC_ALLOCATION == 1 ) */
 889:Middlewares/Third_Party/FreeRTOS/Source/timers.c ****                         {
 890:Middlewares/Third_Party/FreeRTOS/Source/timers.c ****                             /* If dynamic allocation is not enabled, the memory
 891:Middlewares/Third_Party/FreeRTOS/Source/timers.c ****                              * could not have been dynamically allocated. So there is
 892:Middlewares/Third_Party/FreeRTOS/Source/timers.c ****                              * no need to free the memory - just mark the timer as
 893:Middlewares/Third_Party/FreeRTOS/Source/timers.c ****                              * "not active". */
 894:Middlewares/Third_Party/FreeRTOS/Source/timers.c ****                             pxTimer->ucStatus &= ( ( uint8_t ) ~tmrSTATUS_IS_ACTIVE );
 895:Middlewares/Third_Party/FreeRTOS/Source/timers.c ****                         }
 896:Middlewares/Third_Party/FreeRTOS/Source/timers.c ****                         #endif /* configSUPPORT_DYNAMIC_ALLOCATION */
 897:Middlewares/Third_Party/FreeRTOS/Source/timers.c ****                         break;
 898:Middlewares/Third_Party/FreeRTOS/Source/timers.c **** 
 899:Middlewares/Third_Party/FreeRTOS/Source/timers.c ****                     default:
 900:Middlewares/Third_Party/FreeRTOS/Source/timers.c ****                         /* Don't expect to get here. */
 901:Middlewares/Third_Party/FreeRTOS/Source/timers.c ****                         break;
 902:Middlewares/Third_Party/FreeRTOS/Source/timers.c ****                 }
 903:Middlewares/Third_Party/FreeRTOS/Source/timers.c ****             }
 904:Middlewares/Third_Party/FreeRTOS/Source/timers.c ****         }
 905:Middlewares/Third_Party/FreeRTOS/Source/timers.c ****     }
 906:Middlewares/Third_Party/FreeRTOS/Source/timers.c **** /*-----------------------------------------------------------*/
 907:Middlewares/Third_Party/FreeRTOS/Source/timers.c **** 
 908:Middlewares/Third_Party/FreeRTOS/Source/timers.c ****     static void prvSwitchTimerLists( void )
 909:Middlewares/Third_Party/FreeRTOS/Source/timers.c ****     {
 338              		.loc 1 909 5 view -0
 339              		.cfi_startproc
 340              		@ args = 0, pretend = 0, frame = 0
 341              		@ frame_needed = 0, uses_anonymous_args = 0
 342 0000 10B5     		push	{r4, lr}
 343              	.LCFI3:
 344              		.cfi_def_cfa_offset 8
 345              		.cfi_offset 4, -8
 346              		.cfi_offset 14, -4
 910:Middlewares/Third_Party/FreeRTOS/Source/timers.c ****         TickType_t xNextExpireTime;
 347              		.loc 1 910 9 view .LVU82
 911:Middlewares/Third_Party/FreeRTOS/Source/timers.c ****         List_t * pxTemp;
 348              		.loc 1 911 9 view .LVU83
 912:Middlewares/Third_Party/FreeRTOS/Source/timers.c **** 
 913:Middlewares/Third_Party/FreeRTOS/Source/timers.c ****         /* The tick count has overflowed.  The timer lists must be switched.
 914:Middlewares/Third_Party/FreeRTOS/Source/timers.c ****          * If there are any timers still referenced from the current timer list
 915:Middlewares/Third_Party/FreeRTOS/Source/timers.c ****          * then they must have expired and should be processed before the lists
 916:Middlewares/Third_Party/FreeRTOS/Source/timers.c ****          * are switched. */
ARM GAS  C:\Users\Yasi\AppData\Local\Temp\ccUhEIlv.s 			page 24


 917:Middlewares/Third_Party/FreeRTOS/Source/timers.c ****         while( listLIST_IS_EMPTY( pxCurrentTimerList ) == pdFALSE )
 349              		.loc 1 917 9 view .LVU84
 350              		.loc 1 917 14 is_stmt 0 view .LVU85
 351 0002 05E0     		b	.L27
 352              	.L28:
 918:Middlewares/Third_Party/FreeRTOS/Source/timers.c ****         {
 919:Middlewares/Third_Party/FreeRTOS/Source/timers.c ****             xNextExpireTime = listGET_ITEM_VALUE_OF_HEAD_ENTRY( pxCurrentTimerList );
 353              		.loc 1 919 13 is_stmt 1 view .LVU86
 354              		.loc 1 919 31 is_stmt 0 view .LVU87
 355 0004 DB68     		ldr	r3, [r3, #12]
 356              		.loc 1 919 29 view .LVU88
 357 0006 1868     		ldr	r0, [r3]
 358              	.LVL38:
 920:Middlewares/Third_Party/FreeRTOS/Source/timers.c **** 
 921:Middlewares/Third_Party/FreeRTOS/Source/timers.c ****             /* Process the expired timer.  For auto-reload timers, be careful to
 922:Middlewares/Third_Party/FreeRTOS/Source/timers.c ****              * process only expirations that occur on the current list.  Further
 923:Middlewares/Third_Party/FreeRTOS/Source/timers.c ****              * expirations must wait until after the lists are switched. */
 924:Middlewares/Third_Party/FreeRTOS/Source/timers.c ****             prvProcessExpiredTimer( xNextExpireTime, tmrMAX_TIME_BEFORE_OVERFLOW );
 359              		.loc 1 924 13 is_stmt 1 view .LVU89
 360 0008 0121     		movs	r1, #1
 361 000a 4942     		rsbs	r1, r1, #0
 362 000c FFF7FEFF 		bl	prvProcessExpiredTimer
 363              	.LVL39:
 364              	.L27:
 917:Middlewares/Third_Party/FreeRTOS/Source/timers.c ****         {
 365              		.loc 1 917 56 view .LVU90
 917:Middlewares/Third_Party/FreeRTOS/Source/timers.c ****         {
 366              		.loc 1 917 16 is_stmt 0 view .LVU91
 367 0010 054B     		ldr	r3, .L29
 368 0012 1B68     		ldr	r3, [r3]
 369 0014 1A68     		ldr	r2, [r3]
 917:Middlewares/Third_Party/FreeRTOS/Source/timers.c ****         {
 370              		.loc 1 917 56 view .LVU92
 371 0016 002A     		cmp	r2, #0
 372 0018 F4D1     		bne	.L28
 925:Middlewares/Third_Party/FreeRTOS/Source/timers.c ****         }
 926:Middlewares/Third_Party/FreeRTOS/Source/timers.c **** 
 927:Middlewares/Third_Party/FreeRTOS/Source/timers.c ****         pxTemp = pxCurrentTimerList;
 373              		.loc 1 927 9 is_stmt 1 view .LVU93
 374              	.LVL40:
 928:Middlewares/Third_Party/FreeRTOS/Source/timers.c ****         pxCurrentTimerList = pxOverflowTimerList;
 375              		.loc 1 928 9 view .LVU94
 376              		.loc 1 928 28 is_stmt 0 view .LVU95
 377 001a 034A     		ldr	r2, .L29
 378 001c 0349     		ldr	r1, .L29+4
 379 001e 0868     		ldr	r0, [r1]
 380 0020 1060     		str	r0, [r2]
 929:Middlewares/Third_Party/FreeRTOS/Source/timers.c ****         pxOverflowTimerList = pxTemp;
 381              		.loc 1 929 9 is_stmt 1 view .LVU96
 382              		.loc 1 929 29 is_stmt 0 view .LVU97
 383 0022 0B60     		str	r3, [r1]
 930:Middlewares/Third_Party/FreeRTOS/Source/timers.c ****     }
 384              		.loc 1 930 5 view .LVU98
 385              		@ sp needed
 386 0024 10BD     		pop	{r4, pc}
 387              	.L30:
 388 0026 C046     		.align	2
ARM GAS  C:\Users\Yasi\AppData\Local\Temp\ccUhEIlv.s 			page 25


 389              	.L29:
 390 0028 00000000 		.word	pxCurrentTimerList
 391 002c 00000000 		.word	pxOverflowTimerList
 392              		.cfi_endproc
 393              	.LFE20:
 395              		.section	.text.prvSampleTimeNow,"ax",%progbits
 396              		.align	1
 397              		.syntax unified
 398              		.code	16
 399              		.thumb_func
 401              	prvSampleTimeNow:
 402              	.LVL41:
 403              	.LFB17:
 694:Middlewares/Third_Party/FreeRTOS/Source/timers.c ****         TickType_t xTimeNow;
 404              		.loc 1 694 5 is_stmt 1 view -0
 405              		.cfi_startproc
 406              		@ args = 0, pretend = 0, frame = 0
 407              		@ frame_needed = 0, uses_anonymous_args = 0
 694:Middlewares/Third_Party/FreeRTOS/Source/timers.c ****         TickType_t xTimeNow;
 408              		.loc 1 694 5 is_stmt 0 view .LVU100
 409 0000 70B5     		push	{r4, r5, r6, lr}
 410              	.LCFI4:
 411              		.cfi_def_cfa_offset 16
 412              		.cfi_offset 4, -16
 413              		.cfi_offset 5, -12
 414              		.cfi_offset 6, -8
 415              		.cfi_offset 14, -4
 416 0002 0500     		movs	r5, r0
 695:Middlewares/Third_Party/FreeRTOS/Source/timers.c ****         PRIVILEGED_DATA static TickType_t xLastTime = ( TickType_t ) 0U; /*lint !e956 Variable is o
 417              		.loc 1 695 9 is_stmt 1 view .LVU101
 696:Middlewares/Third_Party/FreeRTOS/Source/timers.c **** 
 418              		.loc 1 696 25 view .LVU102
 698:Middlewares/Third_Party/FreeRTOS/Source/timers.c **** 
 419              		.loc 1 698 9 view .LVU103
 698:Middlewares/Third_Party/FreeRTOS/Source/timers.c **** 
 420              		.loc 1 698 20 is_stmt 0 view .LVU104
 421 0004 FFF7FEFF 		bl	xTaskGetTickCount
 422              	.LVL42:
 698:Middlewares/Third_Party/FreeRTOS/Source/timers.c **** 
 423              		.loc 1 698 20 view .LVU105
 424 0008 0400     		movs	r4, r0
 425              	.LVL43:
 700:Middlewares/Third_Party/FreeRTOS/Source/timers.c ****         {
 426              		.loc 1 700 9 is_stmt 1 view .LVU106
 700:Middlewares/Third_Party/FreeRTOS/Source/timers.c ****         {
 427              		.loc 1 700 22 is_stmt 0 view .LVU107
 428 000a 074B     		ldr	r3, .L35
 429 000c 1B68     		ldr	r3, [r3]
 700:Middlewares/Third_Party/FreeRTOS/Source/timers.c ****         {
 430              		.loc 1 700 11 view .LVU108
 431 000e 8342     		cmp	r3, r0
 432 0010 05D8     		bhi	.L34
 707:Middlewares/Third_Party/FreeRTOS/Source/timers.c ****         }
 433              		.loc 1 707 13 is_stmt 1 view .LVU109
 707:Middlewares/Third_Party/FreeRTOS/Source/timers.c ****         }
 434              		.loc 1 707 39 is_stmt 0 view .LVU110
 435 0012 0023     		movs	r3, #0
ARM GAS  C:\Users\Yasi\AppData\Local\Temp\ccUhEIlv.s 			page 26


 436 0014 2B60     		str	r3, [r5]
 437              	.LVL44:
 438              	.L33:
 710:Middlewares/Third_Party/FreeRTOS/Source/timers.c **** 
 439              		.loc 1 710 9 is_stmt 1 view .LVU111
 710:Middlewares/Third_Party/FreeRTOS/Source/timers.c **** 
 440              		.loc 1 710 19 is_stmt 0 view .LVU112
 441 0016 044B     		ldr	r3, .L35
 442 0018 1C60     		str	r4, [r3]
 712:Middlewares/Third_Party/FreeRTOS/Source/timers.c ****     }
 443              		.loc 1 712 9 is_stmt 1 view .LVU113
 713:Middlewares/Third_Party/FreeRTOS/Source/timers.c **** /*-----------------------------------------------------------*/
 444              		.loc 1 713 5 is_stmt 0 view .LVU114
 445 001a 2000     		movs	r0, r4
 446              		@ sp needed
 447              	.LVL45:
 448              	.LVL46:
 713:Middlewares/Third_Party/FreeRTOS/Source/timers.c **** /*-----------------------------------------------------------*/
 449              		.loc 1 713 5 view .LVU115
 450 001c 70BD     		pop	{r4, r5, r6, pc}
 451              	.LVL47:
 452              	.L34:
 702:Middlewares/Third_Party/FreeRTOS/Source/timers.c ****             *pxTimerListsWereSwitched = pdTRUE;
 453              		.loc 1 702 13 is_stmt 1 view .LVU116
 454 001e FFF7FEFF 		bl	prvSwitchTimerLists
 455              	.LVL48:
 703:Middlewares/Third_Party/FreeRTOS/Source/timers.c ****         }
 456              		.loc 1 703 13 view .LVU117
 703:Middlewares/Third_Party/FreeRTOS/Source/timers.c ****         }
 457              		.loc 1 703 39 is_stmt 0 view .LVU118
 458 0022 0123     		movs	r3, #1
 459 0024 2B60     		str	r3, [r5]
 460 0026 F6E7     		b	.L33
 461              	.L36:
 462              		.align	2
 463              	.L35:
 464 0028 00000000 		.word	xLastTime.2
 465              		.cfi_endproc
 466              	.LFE17:
 468              		.section	.text.prvProcessTimerOrBlockTask,"ax",%progbits
 469              		.align	1
 470              		.syntax unified
 471              		.code	16
 472              		.thumb_func
 474              	prvProcessTimerOrBlockTask:
 475              	.LVL49:
 476              	.LFB15:
 606:Middlewares/Third_Party/FreeRTOS/Source/timers.c ****         TickType_t xTimeNow;
 477              		.loc 1 606 5 is_stmt 1 view -0
 478              		.cfi_startproc
 479              		@ args = 0, pretend = 0, frame = 8
 480              		@ frame_needed = 0, uses_anonymous_args = 0
 606:Middlewares/Third_Party/FreeRTOS/Source/timers.c ****         TickType_t xTimeNow;
 481              		.loc 1 606 5 is_stmt 0 view .LVU120
 482 0000 70B5     		push	{r4, r5, r6, lr}
 483              	.LCFI5:
 484              		.cfi_def_cfa_offset 16
ARM GAS  C:\Users\Yasi\AppData\Local\Temp\ccUhEIlv.s 			page 27


 485              		.cfi_offset 4, -16
 486              		.cfi_offset 5, -12
 487              		.cfi_offset 6, -8
 488              		.cfi_offset 14, -4
 489 0002 82B0     		sub	sp, sp, #8
 490              	.LCFI6:
 491              		.cfi_def_cfa_offset 24
 492 0004 0400     		movs	r4, r0
 493 0006 0D00     		movs	r5, r1
 607:Middlewares/Third_Party/FreeRTOS/Source/timers.c ****         BaseType_t xTimerListsWereSwitched;
 494              		.loc 1 607 9 is_stmt 1 view .LVU121
 608:Middlewares/Third_Party/FreeRTOS/Source/timers.c **** 
 495              		.loc 1 608 9 view .LVU122
 610:Middlewares/Third_Party/FreeRTOS/Source/timers.c ****         {
 496              		.loc 1 610 9 view .LVU123
 497 0008 FFF7FEFF 		bl	vTaskSuspendAll
 498              	.LVL50:
 617:Middlewares/Third_Party/FreeRTOS/Source/timers.c **** 
 499              		.loc 1 617 13 view .LVU124
 617:Middlewares/Third_Party/FreeRTOS/Source/timers.c **** 
 500              		.loc 1 617 24 is_stmt 0 view .LVU125
 501 000c 01A8     		add	r0, sp, #4
 502 000e FFF7FEFF 		bl	prvSampleTimeNow
 503              	.LVL51:
 504 0012 0600     		movs	r6, r0
 505              	.LVL52:
 619:Middlewares/Third_Party/FreeRTOS/Source/timers.c ****             {
 506              		.loc 1 619 13 is_stmt 1 view .LVU126
 619:Middlewares/Third_Party/FreeRTOS/Source/timers.c ****             {
 507              		.loc 1 619 41 is_stmt 0 view .LVU127
 508 0014 019B     		ldr	r3, [sp, #4]
 619:Middlewares/Third_Party/FreeRTOS/Source/timers.c ****             {
 509              		.loc 1 619 15 view .LVU128
 510 0016 002B     		cmp	r3, #0
 511 0018 22D1     		bne	.L38
 622:Middlewares/Third_Party/FreeRTOS/Source/timers.c ****                 {
 512              		.loc 1 622 17 is_stmt 1 view .LVU129
 622:Middlewares/Third_Party/FreeRTOS/Source/timers.c ****                 {
 513              		.loc 1 622 19 is_stmt 0 view .LVU130
 514 001a 002D     		cmp	r5, #0
 515 001c 14D1     		bne	.L39
 622:Middlewares/Third_Party/FreeRTOS/Source/timers.c ****                 {
 516              		.loc 1 622 50 discriminator 1 view .LVU131
 517 001e A042     		cmp	r0, r4
 518 0020 0BD2     		bcs	.L43
 519              	.LVL53:
 520              	.L40:
 642:Middlewares/Third_Party/FreeRTOS/Source/timers.c **** 
 521              		.loc 1 642 21 is_stmt 1 view .LVU132
 522 0022 A11B     		subs	r1, r4, r6
 523 0024 104B     		ldr	r3, .L45
 524 0026 1868     		ldr	r0, [r3]
 525              	.LVL54:
 642:Middlewares/Third_Party/FreeRTOS/Source/timers.c **** 
 526              		.loc 1 642 21 is_stmt 0 view .LVU133
 527 0028 2A00     		movs	r2, r5
 528 002a FFF7FEFF 		bl	vQueueWaitForMessageRestricted
ARM GAS  C:\Users\Yasi\AppData\Local\Temp\ccUhEIlv.s 			page 28


 529              	.LVL55:
 644:Middlewares/Third_Party/FreeRTOS/Source/timers.c ****                     {
 530              		.loc 1 644 21 is_stmt 1 view .LVU134
 644:Middlewares/Third_Party/FreeRTOS/Source/timers.c ****                     {
 531              		.loc 1 644 25 is_stmt 0 view .LVU135
 532 002e FFF7FEFF 		bl	xTaskResumeAll
 533              	.LVL56:
 644:Middlewares/Third_Party/FreeRTOS/Source/timers.c ****                     {
 534              		.loc 1 644 23 discriminator 1 view .LVU136
 535 0032 0028     		cmp	r0, #0
 536 0034 11D0     		beq	.L44
 537              	.L37:
 663:Middlewares/Third_Party/FreeRTOS/Source/timers.c **** /*-----------------------------------------------------------*/
 538              		.loc 1 663 5 view .LVU137
 539 0036 02B0     		add	sp, sp, #8
 540              		@ sp needed
 541              	.LVL57:
 542              	.LVL58:
 543              	.LVL59:
 663:Middlewares/Third_Party/FreeRTOS/Source/timers.c **** /*-----------------------------------------------------------*/
 544              		.loc 1 663 5 view .LVU138
 545 0038 70BD     		pop	{r4, r5, r6, pc}
 546              	.LVL60:
 547              	.L43:
 624:Middlewares/Third_Party/FreeRTOS/Source/timers.c ****                     prvProcessExpiredTimer( xNextExpireTime, xTimeNow );
 548              		.loc 1 624 21 is_stmt 1 view .LVU139
 624:Middlewares/Third_Party/FreeRTOS/Source/timers.c ****                     prvProcessExpiredTimer( xNextExpireTime, xTimeNow );
 549              		.loc 1 624 30 is_stmt 0 view .LVU140
 550 003a FFF7FEFF 		bl	xTaskResumeAll
 551              	.LVL61:
 625:Middlewares/Third_Party/FreeRTOS/Source/timers.c ****                 }
 552              		.loc 1 625 21 is_stmt 1 view .LVU141
 553 003e 3100     		movs	r1, r6
 554 0040 2000     		movs	r0, r4
 555 0042 FFF7FEFF 		bl	prvProcessExpiredTimer
 556              	.LVL62:
 557 0046 F6E7     		b	.L37
 558              	.LVL63:
 559              	.L39:
 639:Middlewares/Third_Party/FreeRTOS/Source/timers.c ****                     }
 560              		.loc 1 639 25 view .LVU142
 639:Middlewares/Third_Party/FreeRTOS/Source/timers.c ****                     }
 561              		.loc 1 639 41 is_stmt 0 view .LVU143
 562 0048 084A     		ldr	r2, .L45+4
 563 004a 1268     		ldr	r2, [r2]
 564 004c 1268     		ldr	r2, [r2]
 565 004e 002A     		cmp	r2, #0
 566 0050 01D1     		bne	.L42
 639:Middlewares/Third_Party/FreeRTOS/Source/timers.c ****                     }
 567              		.loc 1 639 41 discriminator 1 view .LVU144
 568 0052 0125     		movs	r5, #1
 569              	.LVL64:
 639:Middlewares/Third_Party/FreeRTOS/Source/timers.c ****                     }
 570              		.loc 1 639 41 discriminator 1 view .LVU145
 571 0054 E5E7     		b	.L40
 572              	.LVL65:
 573              	.L42:
ARM GAS  C:\Users\Yasi\AppData\Local\Temp\ccUhEIlv.s 			page 29


 639:Middlewares/Third_Party/FreeRTOS/Source/timers.c ****                     }
 574              		.loc 1 639 41 discriminator 2 view .LVU146
 575 0056 1D00     		movs	r5, r3
 576              	.LVL66:
 639:Middlewares/Third_Party/FreeRTOS/Source/timers.c ****                     }
 577              		.loc 1 639 41 discriminator 2 view .LVU147
 578 0058 E3E7     		b	.L40
 579              	.LVL67:
 580              	.L44:
 650:Middlewares/Third_Party/FreeRTOS/Source/timers.c ****                     }
 581              		.loc 1 650 25 is_stmt 1 view .LVU148
 582 005a FFF7FEFF 		bl	vPortYield
 583              	.LVL68:
 584 005e EAE7     		b	.L37
 585              	.LVL69:
 586              	.L38:
 660:Middlewares/Third_Party/FreeRTOS/Source/timers.c ****             }
 587              		.loc 1 660 17 view .LVU149
 660:Middlewares/Third_Party/FreeRTOS/Source/timers.c ****             }
 588              		.loc 1 660 26 is_stmt 0 view .LVU150
 589 0060 FFF7FEFF 		bl	xTaskResumeAll
 590              	.LVL70:
 663:Middlewares/Third_Party/FreeRTOS/Source/timers.c **** /*-----------------------------------------------------------*/
 591              		.loc 1 663 5 view .LVU151
 592 0064 E7E7     		b	.L37
 593              	.L46:
 594 0066 C046     		.align	2
 595              	.L45:
 596 0068 00000000 		.word	xTimerQueue
 597 006c 00000000 		.word	pxOverflowTimerList
 598              		.cfi_endproc
 599              	.LFE15:
 601              		.section	.text.prvProcessReceivedCommands,"ax",%progbits
 602              		.align	1
 603              		.syntax unified
 604              		.code	16
 605              		.thumb_func
 607              	prvProcessReceivedCommands:
 608              	.LFB19:
 761:Middlewares/Third_Party/FreeRTOS/Source/timers.c ****         DaemonTaskMessage_t xMessage;
 609              		.loc 1 761 5 is_stmt 1 view -0
 610              		.cfi_startproc
 611              		@ args = 0, pretend = 0, frame = 24
 612              		@ frame_needed = 0, uses_anonymous_args = 0
 613 0000 30B5     		push	{r4, r5, lr}
 614              	.LCFI7:
 615              		.cfi_def_cfa_offset 12
 616              		.cfi_offset 4, -12
 617              		.cfi_offset 5, -8
 618              		.cfi_offset 14, -4
 619 0002 87B0     		sub	sp, sp, #28
 620              	.LCFI8:
 621              		.cfi_def_cfa_offset 40
 762:Middlewares/Third_Party/FreeRTOS/Source/timers.c ****         Timer_t * pxTimer;
 622              		.loc 1 762 9 view .LVU153
 763:Middlewares/Third_Party/FreeRTOS/Source/timers.c ****         BaseType_t xTimerListsWereSwitched;
 623              		.loc 1 763 9 view .LVU154
ARM GAS  C:\Users\Yasi\AppData\Local\Temp\ccUhEIlv.s 			page 30


 764:Middlewares/Third_Party/FreeRTOS/Source/timers.c ****         TickType_t xTimeNow;
 624              		.loc 1 764 9 view .LVU155
 765:Middlewares/Third_Party/FreeRTOS/Source/timers.c **** 
 625              		.loc 1 765 9 view .LVU156
 767:Middlewares/Third_Party/FreeRTOS/Source/timers.c ****         {
 626              		.loc 1 767 9 view .LVU157
 767:Middlewares/Third_Party/FreeRTOS/Source/timers.c ****         {
 627              		.loc 1 767 14 is_stmt 0 view .LVU158
 628 0004 02E0     		b	.L50
 629              	.L49:
 786:Middlewares/Third_Party/FreeRTOS/Source/timers.c ****                 }
 630              		.loc 1 786 45 is_stmt 1 view .LVU159
 793:Middlewares/Third_Party/FreeRTOS/Source/timers.c ****             {
 631              		.loc 1 793 13 view .LVU160
 793:Middlewares/Third_Party/FreeRTOS/Source/timers.c ****             {
 632              		.loc 1 793 25 is_stmt 0 view .LVU161
 633 0006 029B     		ldr	r3, [sp, #8]
 793:Middlewares/Third_Party/FreeRTOS/Source/timers.c ****             {
 634              		.loc 1 793 15 view .LVU162
 635 0008 002B     		cmp	r3, #0
 636 000a 0FDA     		bge	.L65
 637              	.L50:
 767:Middlewares/Third_Party/FreeRTOS/Source/timers.c ****         {
 638              		.loc 1 767 69 is_stmt 1 view .LVU163
 767:Middlewares/Third_Party/FreeRTOS/Source/timers.c ****         {
 639              		.loc 1 767 16 is_stmt 0 view .LVU164
 640 000c 354B     		ldr	r3, .L70
 641 000e 1868     		ldr	r0, [r3]
 642 0010 0022     		movs	r2, #0
 643 0012 02A9     		add	r1, sp, #8
 644 0014 FFF7FEFF 		bl	xQueueReceive
 645              	.LVL71:
 767:Middlewares/Third_Party/FreeRTOS/Source/timers.c ****         {
 646              		.loc 1 767 69 discriminator 1 view .LVU165
 647 0018 0028     		cmp	r0, #0
 648 001a 60D0     		beq	.L66
 773:Middlewares/Third_Party/FreeRTOS/Source/timers.c ****                 {
 649              		.loc 1 773 17 is_stmt 1 view .LVU166
 773:Middlewares/Third_Party/FreeRTOS/Source/timers.c ****                 {
 650              		.loc 1 773 29 is_stmt 0 view .LVU167
 651 001c 029B     		ldr	r3, [sp, #8]
 773:Middlewares/Third_Party/FreeRTOS/Source/timers.c ****                 {
 652              		.loc 1 773 19 view .LVU168
 653 001e 002B     		cmp	r3, #0
 654 0020 F1DA     		bge	.L49
 655              	.LBB2:
 775:Middlewares/Third_Party/FreeRTOS/Source/timers.c **** 
 656              		.loc 1 775 21 is_stmt 1 view .LVU169
 657              	.LVL72:
 779:Middlewares/Third_Party/FreeRTOS/Source/timers.c **** 
 658              		.loc 1 779 21 view .LVU170
 779:Middlewares/Third_Party/FreeRTOS/Source/timers.c **** 
 659              		.loc 1 779 47 discriminator 2 view .LVU171
 782:Middlewares/Third_Party/FreeRTOS/Source/timers.c ****                 }
 660              		.loc 1 782 21 view .LVU172
 782:Middlewares/Third_Party/FreeRTOS/Source/timers.c ****                 }
 661              		.loc 1 782 31 is_stmt 0 view .LVU173
ARM GAS  C:\Users\Yasi\AppData\Local\Temp\ccUhEIlv.s 			page 31


 662 0022 039B     		ldr	r3, [sp, #12]
 782:Middlewares/Third_Party/FreeRTOS/Source/timers.c ****                 }
 663              		.loc 1 782 63 view .LVU174
 664 0024 0498     		ldr	r0, [sp, #16]
 782:Middlewares/Third_Party/FreeRTOS/Source/timers.c ****                 }
 665              		.loc 1 782 89 view .LVU175
 666 0026 0599     		ldr	r1, [sp, #20]
 782:Middlewares/Third_Party/FreeRTOS/Source/timers.c ****                 }
 667              		.loc 1 782 21 view .LVU176
 668 0028 9847     		blx	r3
 669              	.LVL73:
 670              	.LBE2:
 671 002a ECE7     		b	.L49
 672              	.LVL74:
 673              	.L65:
 797:Middlewares/Third_Party/FreeRTOS/Source/timers.c **** 
 674              		.loc 1 797 17 is_stmt 1 view .LVU177
 797:Middlewares/Third_Party/FreeRTOS/Source/timers.c **** 
 675              		.loc 1 797 25 is_stmt 0 view .LVU178
 676 002c 049C     		ldr	r4, [sp, #16]
 677              	.LVL75:
 799:Middlewares/Third_Party/FreeRTOS/Source/timers.c ****                 {
 678              		.loc 1 799 17 is_stmt 1 view .LVU179
 799:Middlewares/Third_Party/FreeRTOS/Source/timers.c ****                 {
 679              		.loc 1 799 21 is_stmt 0 view .LVU180
 680 002e 6369     		ldr	r3, [r4, #20]
 799:Middlewares/Third_Party/FreeRTOS/Source/timers.c ****                 {
 681              		.loc 1 799 19 view .LVU181
 682 0030 002B     		cmp	r3, #0
 683 0032 02D0     		beq	.L51
 802:Middlewares/Third_Party/FreeRTOS/Source/timers.c ****                 }
 684              		.loc 1 802 21 is_stmt 1 view .LVU182
 802:Middlewares/Third_Party/FreeRTOS/Source/timers.c ****                 }
 685              		.loc 1 802 30 is_stmt 0 view .LVU183
 686 0034 201D     		adds	r0, r4, #4
 687 0036 FFF7FEFF 		bl	uxListRemove
 688              	.LVL76:
 689              	.L51:
 806:Middlewares/Third_Party/FreeRTOS/Source/timers.c ****                 }
 690              		.loc 1 806 45 is_stmt 1 view .LVU184
 809:Middlewares/Third_Party/FreeRTOS/Source/timers.c **** 
 691              		.loc 1 809 119 view .LVU185
 817:Middlewares/Third_Party/FreeRTOS/Source/timers.c **** 
 692              		.loc 1 817 17 view .LVU186
 817:Middlewares/Third_Party/FreeRTOS/Source/timers.c **** 
 693              		.loc 1 817 28 is_stmt 0 view .LVU187
 694 003a 01A8     		add	r0, sp, #4
 695 003c FFF7FEFF 		bl	prvSampleTimeNow
 696              	.LVL77:
 697 0040 0500     		movs	r5, r0
 698              	.LVL78:
 819:Middlewares/Third_Party/FreeRTOS/Source/timers.c ****                 {
 699              		.loc 1 819 17 is_stmt 1 view .LVU188
 819:Middlewares/Third_Party/FreeRTOS/Source/timers.c ****                 {
 700              		.loc 1 819 33 is_stmt 0 view .LVU189
 701 0042 029B     		ldr	r3, [sp, #8]
 819:Middlewares/Third_Party/FreeRTOS/Source/timers.c ****                 {
ARM GAS  C:\Users\Yasi\AppData\Local\Temp\ccUhEIlv.s 			page 32


 702              		.loc 1 819 17 view .LVU190
 703 0044 092B     		cmp	r3, #9
 704 0046 E1D8     		bhi	.L50
 705 0048 9B00     		lsls	r3, r3, #2
 706 004a 274A     		ldr	r2, .L70+4
 707 004c D358     		ldr	r3, [r2, r3]
 708 004e 9F46     		mov	pc, r3
 709              		.section	.rodata.prvProcessReceivedCommands,"a",%progbits
 710              		.align	2
 711              	.L54:
 712 0000 0C000000 		.word	.L50
 713 0004 50000000 		.word	.L56
 714 0008 50000000 		.word	.L56
 715 000c 94000000 		.word	.L55
 716 0010 A0000000 		.word	.L53
 717 0014 C4000000 		.word	.L57
 718 0018 50000000 		.word	.L56
 719 001c 50000000 		.word	.L56
 720 0020 94000000 		.word	.L55
 721 0024 A0000000 		.word	.L53
 722              		.section	.text.prvProcessReceivedCommands
 723              	.L56:
 826:Middlewares/Third_Party/FreeRTOS/Source/timers.c **** 
 724              		.loc 1 826 25 is_stmt 1 view .LVU191
 826:Middlewares/Third_Party/FreeRTOS/Source/timers.c **** 
 725              		.loc 1 826 32 is_stmt 0 view .LVU192
 726 0050 2822     		movs	r2, #40
 727 0052 A35C     		ldrb	r3, [r4, r2]
 826:Middlewares/Third_Party/FreeRTOS/Source/timers.c **** 
 728              		.loc 1 826 43 view .LVU193
 729 0054 0121     		movs	r1, #1
 730 0056 0B43     		orrs	r3, r1
 731 0058 A354     		strb	r3, [r4, r2]
 828:Middlewares/Third_Party/FreeRTOS/Source/timers.c ****                         {
 732              		.loc 1 828 25 is_stmt 1 view .LVU194
 828:Middlewares/Third_Party/FreeRTOS/Source/timers.c ****                         {
 733              		.loc 1 828 93 is_stmt 0 view .LVU195
 734 005a 039B     		ldr	r3, [sp, #12]
 828:Middlewares/Third_Party/FreeRTOS/Source/timers.c ****                         {
 735              		.loc 1 828 117 view .LVU196
 736 005c A169     		ldr	r1, [r4, #24]
 828:Middlewares/Third_Party/FreeRTOS/Source/timers.c ****                         {
 737              		.loc 1 828 29 view .LVU197
 738 005e 5918     		adds	r1, r3, r1
 739 0060 0200     		movs	r2, r0
 740 0062 2000     		movs	r0, r4
 741              	.LVL79:
 828:Middlewares/Third_Party/FreeRTOS/Source/timers.c ****                         {
 742              		.loc 1 828 29 view .LVU198
 743 0064 FFF7FEFF 		bl	prvInsertTimerInActiveList
 744              	.LVL80:
 828:Middlewares/Third_Party/FreeRTOS/Source/timers.c ****                         {
 745              		.loc 1 828 27 discriminator 1 view .LVU199
 746 0068 0028     		cmp	r0, #0
 747 006a CFD0     		beq	.L50
 832:Middlewares/Third_Party/FreeRTOS/Source/timers.c ****                             {
 748              		.loc 1 832 29 is_stmt 1 view .LVU200
ARM GAS  C:\Users\Yasi\AppData\Local\Temp\ccUhEIlv.s 			page 33


 832:Middlewares/Third_Party/FreeRTOS/Source/timers.c ****                             {
 749              		.loc 1 832 42 is_stmt 0 view .LVU201
 750 006c 2823     		movs	r3, #40
 751 006e E35C     		ldrb	r3, [r4, r3]
 832:Middlewares/Third_Party/FreeRTOS/Source/timers.c ****                             {
 752              		.loc 1 832 31 view .LVU202
 753 0070 5A07     		lsls	r2, r3, #29
 754 0072 07D4     		bmi	.L67
 838:Middlewares/Third_Party/FreeRTOS/Source/timers.c ****                             }
 755              		.loc 1 838 33 is_stmt 1 view .LVU203
 838:Middlewares/Third_Party/FreeRTOS/Source/timers.c ****                             }
 756              		.loc 1 838 51 is_stmt 0 view .LVU204
 757 0074 0122     		movs	r2, #1
 758 0076 9343     		bics	r3, r2
 759 0078 2732     		adds	r2, r2, #39
 760 007a A354     		strb	r3, [r4, r2]
 761              	.L60:
 842:Middlewares/Third_Party/FreeRTOS/Source/timers.c ****                             pxTimer->pxCallbackFunction( ( TimerHandle_t ) pxTimer );
 762              		.loc 1 842 58 is_stmt 1 view .LVU205
 843:Middlewares/Third_Party/FreeRTOS/Source/timers.c ****                         }
 763              		.loc 1 843 29 view .LVU206
 843:Middlewares/Third_Party/FreeRTOS/Source/timers.c ****                         }
 764              		.loc 1 843 36 is_stmt 0 view .LVU207
 765 007c 236A     		ldr	r3, [r4, #32]
 843:Middlewares/Third_Party/FreeRTOS/Source/timers.c ****                         }
 766              		.loc 1 843 29 view .LVU208
 767 007e 2000     		movs	r0, r4
 768 0080 9847     		blx	r3
 769              	.LVL81:
 770 0082 C3E7     		b	.L50
 771              	.L67:
 834:Middlewares/Third_Party/FreeRTOS/Source/timers.c ****                             }
 772              		.loc 1 834 33 is_stmt 1 view .LVU209
 834:Middlewares/Third_Party/FreeRTOS/Source/timers.c ****                             }
 773              		.loc 1 834 85 is_stmt 0 view .LVU210
 774 0084 0399     		ldr	r1, [sp, #12]
 834:Middlewares/Third_Party/FreeRTOS/Source/timers.c ****                             }
 775              		.loc 1 834 109 view .LVU211
 776 0086 A369     		ldr	r3, [r4, #24]
 834:Middlewares/Third_Party/FreeRTOS/Source/timers.c ****                             }
 777              		.loc 1 834 33 view .LVU212
 778 0088 C918     		adds	r1, r1, r3
 779 008a 2A00     		movs	r2, r5
 780 008c 2000     		movs	r0, r4
 781 008e FFF7FEFF 		bl	prvReloadTimer
 782              	.LVL82:
 783 0092 F3E7     		b	.L60
 784              	.LVL83:
 785              	.L55:
 855:Middlewares/Third_Party/FreeRTOS/Source/timers.c ****                         break;
 786              		.loc 1 855 25 is_stmt 1 view .LVU213
 855:Middlewares/Third_Party/FreeRTOS/Source/timers.c ****                         break;
 787              		.loc 1 855 32 is_stmt 0 view .LVU214
 788 0094 2822     		movs	r2, #40
 789 0096 A35C     		ldrb	r3, [r4, r2]
 855:Middlewares/Third_Party/FreeRTOS/Source/timers.c ****                         break;
 790              		.loc 1 855 43 view .LVU215
ARM GAS  C:\Users\Yasi\AppData\Local\Temp\ccUhEIlv.s 			page 34


 791 0098 0121     		movs	r1, #1
 792 009a 8B43     		bics	r3, r1
 793 009c A354     		strb	r3, [r4, r2]
 856:Middlewares/Third_Party/FreeRTOS/Source/timers.c **** 
 794              		.loc 1 856 25 is_stmt 1 view .LVU216
 795 009e B5E7     		b	.L50
 796              	.L53:
 860:Middlewares/Third_Party/FreeRTOS/Source/timers.c ****                         pxTimer->xTimerPeriodInTicks = xMessage.u.xTimerParameters.xMessageValue;
 797              		.loc 1 860 25 view .LVU217
 860:Middlewares/Third_Party/FreeRTOS/Source/timers.c ****                         pxTimer->xTimerPeriodInTicks = xMessage.u.xTimerParameters.xMessageValue;
 798              		.loc 1 860 32 is_stmt 0 view .LVU218
 799 00a0 2822     		movs	r2, #40
 800 00a2 A35C     		ldrb	r3, [r4, r2]
 860:Middlewares/Third_Party/FreeRTOS/Source/timers.c ****                         pxTimer->xTimerPeriodInTicks = xMessage.u.xTimerParameters.xMessageValue;
 801              		.loc 1 860 43 view .LVU219
 802 00a4 0121     		movs	r1, #1
 803 00a6 0B43     		orrs	r3, r1
 804 00a8 A354     		strb	r3, [r4, r2]
 861:Middlewares/Third_Party/FreeRTOS/Source/timers.c ****                         configASSERT( ( pxTimer->xTimerPeriodInTicks > 0 ) );
 805              		.loc 1 861 25 is_stmt 1 view .LVU220
 861:Middlewares/Third_Party/FreeRTOS/Source/timers.c ****                         configASSERT( ( pxTimer->xTimerPeriodInTicks > 0 ) );
 806              		.loc 1 861 83 is_stmt 0 view .LVU221
 807 00aa 0399     		ldr	r1, [sp, #12]
 861:Middlewares/Third_Party/FreeRTOS/Source/timers.c ****                         configASSERT( ( pxTimer->xTimerPeriodInTicks > 0 ) );
 808              		.loc 1 861 54 view .LVU222
 809 00ac A161     		str	r1, [r4, #24]
 862:Middlewares/Third_Party/FreeRTOS/Source/timers.c **** 
 810              		.loc 1 862 25 is_stmt 1 view .LVU223
 811 00ae 0029     		cmp	r1, #0
 812 00b0 06D0     		beq	.L68
 862:Middlewares/Third_Party/FreeRTOS/Source/timers.c **** 
 813              		.loc 1 862 77 discriminator 2 view .LVU224
 870:Middlewares/Third_Party/FreeRTOS/Source/timers.c ****                         break;
 814              		.loc 1 870 25 view .LVU225
 870:Middlewares/Third_Party/FreeRTOS/Source/timers.c ****                         break;
 815              		.loc 1 870 34 is_stmt 0 view .LVU226
 816 00b2 0918     		adds	r1, r1, r0
 817 00b4 0300     		movs	r3, r0
 818 00b6 0200     		movs	r2, r0
 819 00b8 2000     		movs	r0, r4
 820              	.LVL84:
 870:Middlewares/Third_Party/FreeRTOS/Source/timers.c ****                         break;
 821              		.loc 1 870 34 view .LVU227
 822 00ba FFF7FEFF 		bl	prvInsertTimerInActiveList
 823              	.LVL85:
 871:Middlewares/Third_Party/FreeRTOS/Source/timers.c **** 
 824              		.loc 1 871 25 is_stmt 1 view .LVU228
 825 00be A5E7     		b	.L50
 826              	.LVL86:
 827              	.L68:
 862:Middlewares/Third_Party/FreeRTOS/Source/timers.c **** 
 828              		.loc 1 862 25 discriminator 1 view .LVU229
 829              		.syntax divided
 830              	@ 862 "Middlewares/Third_Party/FreeRTOS/Source/timers.c" 1
 831 00c0 72B6     		 cpsid i 
 832              	@ 0 "" 2
 833              		.thumb
ARM GAS  C:\Users\Yasi\AppData\Local\Temp\ccUhEIlv.s 			page 35


 834              		.syntax unified
 835              	.L62:
 862:Middlewares/Third_Party/FreeRTOS/Source/timers.c **** 
 836              		.loc 1 862 25 discriminator 3 view .LVU230
 862:Middlewares/Third_Party/FreeRTOS/Source/timers.c **** 
 837              		.loc 1 862 25 discriminator 3 view .LVU231
 838 00c2 FEE7     		b	.L62
 839              	.L57:
 879:Middlewares/Third_Party/FreeRTOS/Source/timers.c ****                             {
 840              		.loc 1 879 29 view .LVU232
 879:Middlewares/Third_Party/FreeRTOS/Source/timers.c ****                             {
 841              		.loc 1 879 42 is_stmt 0 view .LVU233
 842 00c4 2823     		movs	r3, #40
 843 00c6 E35C     		ldrb	r3, [r4, r3]
 879:Middlewares/Third_Party/FreeRTOS/Source/timers.c ****                             {
 844              		.loc 1 879 31 view .LVU234
 845 00c8 9A07     		lsls	r2, r3, #30
 846 00ca 04D5     		bpl	.L69
 885:Middlewares/Third_Party/FreeRTOS/Source/timers.c ****                             }
 847              		.loc 1 885 33 is_stmt 1 view .LVU235
 885:Middlewares/Third_Party/FreeRTOS/Source/timers.c ****                             }
 848              		.loc 1 885 51 is_stmt 0 view .LVU236
 849 00cc 0122     		movs	r2, #1
 850 00ce 9343     		bics	r3, r2
 851 00d0 2732     		adds	r2, r2, #39
 852 00d2 A354     		strb	r3, [r4, r2]
 853 00d4 9AE7     		b	.L50
 854              	.L69:
 881:Middlewares/Third_Party/FreeRTOS/Source/timers.c ****                             }
 855              		.loc 1 881 33 is_stmt 1 view .LVU237
 856 00d6 2000     		movs	r0, r4
 857              	.LVL87:
 881:Middlewares/Third_Party/FreeRTOS/Source/timers.c ****                             }
 858              		.loc 1 881 33 is_stmt 0 view .LVU238
 859 00d8 FFF7FEFF 		bl	vPortFree
 860              	.LVL88:
 861 00dc 96E7     		b	.L50
 862              	.LVL89:
 863              	.L66:
 905:Middlewares/Third_Party/FreeRTOS/Source/timers.c **** /*-----------------------------------------------------------*/
 864              		.loc 1 905 5 view .LVU239
 865 00de 07B0     		add	sp, sp, #28
 866              		@ sp needed
 867 00e0 30BD     		pop	{r4, r5, pc}
 868              	.L71:
 869 00e2 C046     		.align	2
 870              	.L70:
 871 00e4 00000000 		.word	xTimerQueue
 872 00e8 00000000 		.word	.L54
 873              		.cfi_endproc
 874              	.LFE19:
 876              		.section	.text.prvTimerTask,"ax",%progbits
 877              		.align	1
 878              		.syntax unified
 879              		.code	16
 880              		.thumb_func
 882              	prvTimerTask:
ARM GAS  C:\Users\Yasi\AppData\Local\Temp\ccUhEIlv.s 			page 36


 883              	.LFB14:
 569:Middlewares/Third_Party/FreeRTOS/Source/timers.c ****         TickType_t xNextExpireTime;
 884              		.loc 1 569 5 is_stmt 1 view -0
 885              		.cfi_startproc
 886              		@ args = 0, pretend = 0, frame = 8
 887              		@ frame_needed = 0, uses_anonymous_args = 0
 888              	.LVL90:
 569:Middlewares/Third_Party/FreeRTOS/Source/timers.c ****         TickType_t xNextExpireTime;
 889              		.loc 1 569 5 is_stmt 0 view .LVU241
 890 0000 00B5     		push	{lr}
 891              	.LCFI9:
 892              		.cfi_def_cfa_offset 4
 893              		.cfi_offset 14, -4
 894 0002 83B0     		sub	sp, sp, #12
 895              	.LCFI10:
 896              		.cfi_def_cfa_offset 16
 897              	.LVL91:
 898              	.L73:
 570:Middlewares/Third_Party/FreeRTOS/Source/timers.c ****         BaseType_t xListWasEmpty;
 899              		.loc 1 570 9 is_stmt 1 view .LVU242
 571:Middlewares/Third_Party/FreeRTOS/Source/timers.c **** 
 900              		.loc 1 571 9 view .LVU243
 574:Middlewares/Third_Party/FreeRTOS/Source/timers.c **** 
 901              		.loc 1 574 9 view .LVU244
 588:Middlewares/Third_Party/FreeRTOS/Source/timers.c ****         {
 902              		.loc 1 588 9 view .LVU245
 592:Middlewares/Third_Party/FreeRTOS/Source/timers.c **** 
 903              		.loc 1 592 13 view .LVU246
 592:Middlewares/Third_Party/FreeRTOS/Source/timers.c **** 
 904              		.loc 1 592 31 is_stmt 0 view .LVU247
 905 0004 01A8     		add	r0, sp, #4
 906 0006 FFF7FEFF 		bl	prvGetNextExpireTime
 907              	.LVL92:
 596:Middlewares/Third_Party/FreeRTOS/Source/timers.c **** 
 908              		.loc 1 596 13 is_stmt 1 view .LVU248
 909 000a 0199     		ldr	r1, [sp, #4]
 910 000c FFF7FEFF 		bl	prvProcessTimerOrBlockTask
 911              	.LVL93:
 599:Middlewares/Third_Party/FreeRTOS/Source/timers.c ****         }
 912              		.loc 1 599 13 discriminator 1 view .LVU249
 913 0010 FFF7FEFF 		bl	prvProcessReceivedCommands
 914              	.LVL94:
 588:Middlewares/Third_Party/FreeRTOS/Source/timers.c ****         {
 915              		.loc 1 588 9 view .LVU250
 916 0014 F6E7     		b	.L73
 917              		.cfi_endproc
 918              	.LFE14:
 920              		.section	.rodata.prvCheckForValidListAndQueue.str1.4,"aMS",%progbits,1
 921              		.align	2
 922              	.LC18:
 923 0000 546D7251 		.ascii	"TmrQ\000"
 923      00
 924              		.section	.text.prvCheckForValidListAndQueue,"ax",%progbits
 925              		.align	1
 926              		.syntax unified
 927              		.code	16
 928              		.thumb_func
ARM GAS  C:\Users\Yasi\AppData\Local\Temp\ccUhEIlv.s 			page 37


 930              	prvCheckForValidListAndQueue:
 931              	.LFB21:
 931:Middlewares/Third_Party/FreeRTOS/Source/timers.c **** /*-----------------------------------------------------------*/
 932:Middlewares/Third_Party/FreeRTOS/Source/timers.c **** 
 933:Middlewares/Third_Party/FreeRTOS/Source/timers.c ****     static void prvCheckForValidListAndQueue( void )
 934:Middlewares/Third_Party/FreeRTOS/Source/timers.c ****     {
 932              		.loc 1 934 5 view -0
 933              		.cfi_startproc
 934              		@ args = 0, pretend = 0, frame = 0
 935              		@ frame_needed = 0, uses_anonymous_args = 0
 936 0000 30B5     		push	{r4, r5, lr}
 937              	.LCFI11:
 938              		.cfi_def_cfa_offset 12
 939              		.cfi_offset 4, -12
 940              		.cfi_offset 5, -8
 941              		.cfi_offset 14, -4
 942 0002 83B0     		sub	sp, sp, #12
 943              	.LCFI12:
 944              		.cfi_def_cfa_offset 24
 935:Middlewares/Third_Party/FreeRTOS/Source/timers.c ****         /* Check that the list from which active timers are referenced, and the
 936:Middlewares/Third_Party/FreeRTOS/Source/timers.c ****          * queue used to communicate with the timer service, have been
 937:Middlewares/Third_Party/FreeRTOS/Source/timers.c ****          * initialised. */
 938:Middlewares/Third_Party/FreeRTOS/Source/timers.c ****         taskENTER_CRITICAL();
 945              		.loc 1 938 9 view .LVU252
 946 0004 FFF7FEFF 		bl	vPortEnterCritical
 947              	.LVL95:
 939:Middlewares/Third_Party/FreeRTOS/Source/timers.c ****         {
 940:Middlewares/Third_Party/FreeRTOS/Source/timers.c ****             if( xTimerQueue == NULL )
 948              		.loc 1 940 13 view .LVU253
 949              		.loc 1 940 29 is_stmt 0 view .LVU254
 950 0008 114B     		ldr	r3, .L77
 951 000a 1B68     		ldr	r3, [r3]
 952              		.loc 1 940 15 view .LVU255
 953 000c 002B     		cmp	r3, #0
 954 000e 03D0     		beq	.L76
 955              	.L75:
 941:Middlewares/Third_Party/FreeRTOS/Source/timers.c ****             {
 942:Middlewares/Third_Party/FreeRTOS/Source/timers.c ****                 vListInitialise( &xActiveTimerList1 );
 943:Middlewares/Third_Party/FreeRTOS/Source/timers.c ****                 vListInitialise( &xActiveTimerList2 );
 944:Middlewares/Third_Party/FreeRTOS/Source/timers.c ****                 pxCurrentTimerList = &xActiveTimerList1;
 945:Middlewares/Third_Party/FreeRTOS/Source/timers.c ****                 pxOverflowTimerList = &xActiveTimerList2;
 946:Middlewares/Third_Party/FreeRTOS/Source/timers.c **** 
 947:Middlewares/Third_Party/FreeRTOS/Source/timers.c ****                 #if ( configSUPPORT_STATIC_ALLOCATION == 1 )
 948:Middlewares/Third_Party/FreeRTOS/Source/timers.c ****                 {
 949:Middlewares/Third_Party/FreeRTOS/Source/timers.c ****                     /* The timer queue is allocated statically in case
 950:Middlewares/Third_Party/FreeRTOS/Source/timers.c ****                      * configSUPPORT_DYNAMIC_ALLOCATION is 0. */
 951:Middlewares/Third_Party/FreeRTOS/Source/timers.c ****                     PRIVILEGED_DATA static StaticQueue_t xStaticTimerQueue;                        
 952:Middlewares/Third_Party/FreeRTOS/Source/timers.c ****                     PRIVILEGED_DATA static uint8_t ucStaticTimerQueueStorage[ ( size_t ) configTIME
 953:Middlewares/Third_Party/FreeRTOS/Source/timers.c **** 
 954:Middlewares/Third_Party/FreeRTOS/Source/timers.c ****                     xTimerQueue = xQueueCreateStatic( ( UBaseType_t ) configTIMER_QUEUE_LENGTH, ( U
 955:Middlewares/Third_Party/FreeRTOS/Source/timers.c ****                 }
 956:Middlewares/Third_Party/FreeRTOS/Source/timers.c ****                 #else
 957:Middlewares/Third_Party/FreeRTOS/Source/timers.c ****                 {
 958:Middlewares/Third_Party/FreeRTOS/Source/timers.c ****                     xTimerQueue = xQueueCreate( ( UBaseType_t ) configTIMER_QUEUE_LENGTH, sizeof( D
 959:Middlewares/Third_Party/FreeRTOS/Source/timers.c ****                 }
 960:Middlewares/Third_Party/FreeRTOS/Source/timers.c ****                 #endif /* if ( configSUPPORT_STATIC_ALLOCATION == 1 ) */
 961:Middlewares/Third_Party/FreeRTOS/Source/timers.c **** 
ARM GAS  C:\Users\Yasi\AppData\Local\Temp\ccUhEIlv.s 			page 38


 962:Middlewares/Third_Party/FreeRTOS/Source/timers.c ****                 #if ( configQUEUE_REGISTRY_SIZE > 0 )
 963:Middlewares/Third_Party/FreeRTOS/Source/timers.c ****                 {
 964:Middlewares/Third_Party/FreeRTOS/Source/timers.c ****                     if( xTimerQueue != NULL )
 965:Middlewares/Third_Party/FreeRTOS/Source/timers.c ****                     {
 966:Middlewares/Third_Party/FreeRTOS/Source/timers.c ****                         vQueueAddToRegistry( xTimerQueue, "TmrQ" );
 967:Middlewares/Third_Party/FreeRTOS/Source/timers.c ****                     }
 968:Middlewares/Third_Party/FreeRTOS/Source/timers.c ****                     else
 969:Middlewares/Third_Party/FreeRTOS/Source/timers.c ****                     {
 970:Middlewares/Third_Party/FreeRTOS/Source/timers.c ****                         mtCOVERAGE_TEST_MARKER();
 971:Middlewares/Third_Party/FreeRTOS/Source/timers.c ****                     }
 972:Middlewares/Third_Party/FreeRTOS/Source/timers.c ****                 }
 973:Middlewares/Third_Party/FreeRTOS/Source/timers.c ****                 #endif /* configQUEUE_REGISTRY_SIZE */
 974:Middlewares/Third_Party/FreeRTOS/Source/timers.c ****             }
 975:Middlewares/Third_Party/FreeRTOS/Source/timers.c ****             else
 976:Middlewares/Third_Party/FreeRTOS/Source/timers.c ****             {
 977:Middlewares/Third_Party/FreeRTOS/Source/timers.c ****                 mtCOVERAGE_TEST_MARKER();
 956              		.loc 1 977 41 is_stmt 1 view .LVU256
 978:Middlewares/Third_Party/FreeRTOS/Source/timers.c ****             }
 979:Middlewares/Third_Party/FreeRTOS/Source/timers.c ****         }
 980:Middlewares/Third_Party/FreeRTOS/Source/timers.c ****         taskEXIT_CRITICAL();
 957              		.loc 1 980 9 view .LVU257
 958 0010 FFF7FEFF 		bl	vPortExitCritical
 959              	.LVL96:
 981:Middlewares/Third_Party/FreeRTOS/Source/timers.c ****     }
 960              		.loc 1 981 5 is_stmt 0 view .LVU258
 961 0014 03B0     		add	sp, sp, #12
 962              		@ sp needed
 963 0016 30BD     		pop	{r4, r5, pc}
 964              	.L76:
 942:Middlewares/Third_Party/FreeRTOS/Source/timers.c ****                 vListInitialise( &xActiveTimerList2 );
 965              		.loc 1 942 17 is_stmt 1 view .LVU259
 966 0018 0E4D     		ldr	r5, .L77+4
 967 001a 2800     		movs	r0, r5
 968 001c FFF7FEFF 		bl	vListInitialise
 969              	.LVL97:
 943:Middlewares/Third_Party/FreeRTOS/Source/timers.c ****                 pxCurrentTimerList = &xActiveTimerList1;
 970              		.loc 1 943 17 view .LVU260
 971 0020 0D4C     		ldr	r4, .L77+8
 972 0022 2000     		movs	r0, r4
 973 0024 FFF7FEFF 		bl	vListInitialise
 974              	.LVL98:
 944:Middlewares/Third_Party/FreeRTOS/Source/timers.c ****                 pxOverflowTimerList = &xActiveTimerList2;
 975              		.loc 1 944 17 view .LVU261
 944:Middlewares/Third_Party/FreeRTOS/Source/timers.c ****                 pxOverflowTimerList = &xActiveTimerList2;
 976              		.loc 1 944 36 is_stmt 0 view .LVU262
 977 0028 0C4B     		ldr	r3, .L77+12
 978 002a 1D60     		str	r5, [r3]
 945:Middlewares/Third_Party/FreeRTOS/Source/timers.c **** 
 979              		.loc 1 945 17 is_stmt 1 view .LVU263
 945:Middlewares/Third_Party/FreeRTOS/Source/timers.c **** 
 980              		.loc 1 945 37 is_stmt 0 view .LVU264
 981 002c 0C4B     		ldr	r3, .L77+16
 982 002e 1C60     		str	r4, [r3]
 983              	.LBB3:
 951:Middlewares/Third_Party/FreeRTOS/Source/timers.c ****                     PRIVILEGED_DATA static uint8_t ucStaticTimerQueueStorage[ ( size_t ) configTIME
 984              		.loc 1 951 37 is_stmt 1 view .LVU265
 952:Middlewares/Third_Party/FreeRTOS/Source/timers.c **** 
ARM GAS  C:\Users\Yasi\AppData\Local\Temp\ccUhEIlv.s 			page 39


 985              		.loc 1 952 37 view .LVU266
 954:Middlewares/Third_Party/FreeRTOS/Source/timers.c ****                 }
 986              		.loc 1 954 21 view .LVU267
 954:Middlewares/Third_Party/FreeRTOS/Source/timers.c ****                 }
 987              		.loc 1 954 35 is_stmt 0 view .LVU268
 988 0030 0C4B     		ldr	r3, .L77+20
 989 0032 0D4A     		ldr	r2, .L77+24
 990 0034 0021     		movs	r1, #0
 991 0036 0091     		str	r1, [sp]
 992 0038 1031     		adds	r1, r1, #16
 993 003a 0A20     		movs	r0, #10
 994 003c FFF7FEFF 		bl	xQueueGenericCreateStatic
 995              	.LVL99:
 954:Middlewares/Third_Party/FreeRTOS/Source/timers.c ****                 }
 996              		.loc 1 954 33 discriminator 1 view .LVU269
 997 0040 034B     		ldr	r3, .L77
 998 0042 1860     		str	r0, [r3]
 999              	.LBE3:
 964:Middlewares/Third_Party/FreeRTOS/Source/timers.c ****                     {
 1000              		.loc 1 964 21 is_stmt 1 view .LVU270
 964:Middlewares/Third_Party/FreeRTOS/Source/timers.c ****                     {
 1001              		.loc 1 964 23 is_stmt 0 view .LVU271
 1002 0044 0028     		cmp	r0, #0
 1003 0046 E3D0     		beq	.L75
 966:Middlewares/Third_Party/FreeRTOS/Source/timers.c ****                     }
 1004              		.loc 1 966 25 is_stmt 1 view .LVU272
 1005 0048 0849     		ldr	r1, .L77+28
 1006 004a FFF7FEFF 		bl	vQueueAddToRegistry
 1007              	.LVL100:
 1008 004e DFE7     		b	.L75
 1009              	.L78:
 1010              		.align	2
 1011              	.L77:
 1012 0050 00000000 		.word	xTimerQueue
 1013 0054 00000000 		.word	xActiveTimerList1
 1014 0058 00000000 		.word	xActiveTimerList2
 1015 005c 00000000 		.word	pxCurrentTimerList
 1016 0060 00000000 		.word	pxOverflowTimerList
 1017 0064 00000000 		.word	xStaticTimerQueue.0
 1018 0068 00000000 		.word	ucStaticTimerQueueStorage.1
 1019 006c 00000000 		.word	.LC18
 1020              		.cfi_endproc
 1021              	.LFE21:
 1023              		.section	.text.prvInitialiseNewTimer,"ax",%progbits
 1024              		.align	1
 1025              		.syntax unified
 1026              		.code	16
 1027              		.thumb_func
 1029              	prvInitialiseNewTimer:
 1030              	.LVL101:
 1031              	.LFB3:
 361:Middlewares/Third_Party/FreeRTOS/Source/timers.c ****         /* 0 is not a valid value for xTimerPeriodInTicks. */
 1032              		.loc 1 361 5 view -0
 1033              		.cfi_startproc
 1034              		@ args = 8, pretend = 0, frame = 8
 1035              		@ frame_needed = 0, uses_anonymous_args = 0
 361:Middlewares/Third_Party/FreeRTOS/Source/timers.c ****         /* 0 is not a valid value for xTimerPeriodInTicks. */
ARM GAS  C:\Users\Yasi\AppData\Local\Temp\ccUhEIlv.s 			page 40


 1036              		.loc 1 361 5 is_stmt 0 view .LVU274
 1037 0000 F0B5     		push	{r4, r5, r6, r7, lr}
 1038              	.LCFI13:
 1039              		.cfi_def_cfa_offset 20
 1040              		.cfi_offset 4, -20
 1041              		.cfi_offset 5, -16
 1042              		.cfi_offset 6, -12
 1043              		.cfi_offset 7, -8
 1044              		.cfi_offset 14, -4
 1045 0002 83B0     		sub	sp, sp, #12
 1046              	.LCFI14:
 1047              		.cfi_def_cfa_offset 32
 1048 0004 0600     		movs	r6, r0
 1049 0006 0C00     		movs	r4, r1
 1050 0008 0192     		str	r2, [sp, #4]
 1051 000a 1D00     		movs	r5, r3
 1052 000c 099F     		ldr	r7, [sp, #36]
 363:Middlewares/Third_Party/FreeRTOS/Source/timers.c **** 
 1053              		.loc 1 363 9 is_stmt 1 view .LVU275
 1054 000e 0029     		cmp	r1, #0
 1055 0010 01D1     		bne	.L80
 363:Middlewares/Third_Party/FreeRTOS/Source/timers.c **** 
 1056              		.loc 1 363 9 discriminator 1 view .LVU276
 1057              		.syntax divided
 1058              	@ 363 "Middlewares/Third_Party/FreeRTOS/Source/timers.c" 1
 1059 0012 72B6     		 cpsid i 
 1060              	@ 0 "" 2
 1061              		.thumb
 1062              		.syntax unified
 1063              	.L81:
 363:Middlewares/Third_Party/FreeRTOS/Source/timers.c **** 
 1064              		.loc 1 363 9 discriminator 3 view .LVU277
 363:Middlewares/Third_Party/FreeRTOS/Source/timers.c **** 
 1065              		.loc 1 363 9 discriminator 3 view .LVU278
 1066 0014 FEE7     		b	.L81
 1067              	.L80:
 363:Middlewares/Third_Party/FreeRTOS/Source/timers.c **** 
 1068              		.loc 1 363 52 discriminator 2 view .LVU279
 367:Middlewares/Third_Party/FreeRTOS/Source/timers.c **** 
 1069              		.loc 1 367 9 view .LVU280
 1070 0016 FFF7FEFF 		bl	prvCheckForValidListAndQueue
 1071              	.LVL102:
 371:Middlewares/Third_Party/FreeRTOS/Source/timers.c ****         pxNewTimer->xTimerPeriodInTicks = xTimerPeriodInTicks;
 1072              		.loc 1 371 9 view .LVU281
 371:Middlewares/Third_Party/FreeRTOS/Source/timers.c ****         pxNewTimer->xTimerPeriodInTicks = xTimerPeriodInTicks;
 1073              		.loc 1 371 33 is_stmt 0 view .LVU282
 1074 001a 3E60     		str	r6, [r7]
 372:Middlewares/Third_Party/FreeRTOS/Source/timers.c ****         pxNewTimer->pvTimerID = pvTimerID;
 1075              		.loc 1 372 9 is_stmt 1 view .LVU283
 372:Middlewares/Third_Party/FreeRTOS/Source/timers.c ****         pxNewTimer->pvTimerID = pvTimerID;
 1076              		.loc 1 372 41 is_stmt 0 view .LVU284
 1077 001c BC61     		str	r4, [r7, #24]
 373:Middlewares/Third_Party/FreeRTOS/Source/timers.c ****         pxNewTimer->pxCallbackFunction = pxCallbackFunction;
 1078              		.loc 1 373 9 is_stmt 1 view .LVU285
 373:Middlewares/Third_Party/FreeRTOS/Source/timers.c ****         pxNewTimer->pxCallbackFunction = pxCallbackFunction;
 1079              		.loc 1 373 31 is_stmt 0 view .LVU286
 1080 001e FD61     		str	r5, [r7, #28]
ARM GAS  C:\Users\Yasi\AppData\Local\Temp\ccUhEIlv.s 			page 41


 374:Middlewares/Third_Party/FreeRTOS/Source/timers.c ****         vListInitialiseItem( &( pxNewTimer->xTimerListItem ) );
 1081              		.loc 1 374 9 is_stmt 1 view .LVU287
 374:Middlewares/Third_Party/FreeRTOS/Source/timers.c ****         vListInitialiseItem( &( pxNewTimer->xTimerListItem ) );
 1082              		.loc 1 374 40 is_stmt 0 view .LVU288
 1083 0020 089B     		ldr	r3, [sp, #32]
 1084 0022 3B62     		str	r3, [r7, #32]
 375:Middlewares/Third_Party/FreeRTOS/Source/timers.c **** 
 1085              		.loc 1 375 9 is_stmt 1 view .LVU289
 1086 0024 381D     		adds	r0, r7, #4
 1087 0026 FFF7FEFF 		bl	vListInitialiseItem
 1088              	.LVL103:
 377:Middlewares/Third_Party/FreeRTOS/Source/timers.c ****         {
 1089              		.loc 1 377 9 view .LVU290
 377:Middlewares/Third_Party/FreeRTOS/Source/timers.c ****         {
 1090              		.loc 1 377 11 is_stmt 0 view .LVU291
 1091 002a 019B     		ldr	r3, [sp, #4]
 1092 002c 002B     		cmp	r3, #0
 1093 002e 04D0     		beq	.L79
 379:Middlewares/Third_Party/FreeRTOS/Source/timers.c ****         }
 1094              		.loc 1 379 13 is_stmt 1 view .LVU292
 379:Middlewares/Third_Party/FreeRTOS/Source/timers.c ****         }
 1095              		.loc 1 379 23 is_stmt 0 view .LVU293
 1096 0030 2822     		movs	r2, #40
 1097 0032 BB5C     		ldrb	r3, [r7, r2]
 379:Middlewares/Third_Party/FreeRTOS/Source/timers.c ****         }
 1098              		.loc 1 379 34 view .LVU294
 1099 0034 0421     		movs	r1, #4
 1100 0036 0B43     		orrs	r3, r1
 1101 0038 BB54     		strb	r3, [r7, r2]
 382:Middlewares/Third_Party/FreeRTOS/Source/timers.c ****     }
 1102              		.loc 1 382 40 is_stmt 1 view .LVU295
 1103              	.L79:
 383:Middlewares/Third_Party/FreeRTOS/Source/timers.c **** /*-----------------------------------------------------------*/
 1104              		.loc 1 383 5 is_stmt 0 view .LVU296
 1105 003a 03B0     		add	sp, sp, #12
 1106              		@ sp needed
 1107              	.LVL104:
 1108              	.LVL105:
 1109              	.LVL106:
 383:Middlewares/Third_Party/FreeRTOS/Source/timers.c **** /*-----------------------------------------------------------*/
 1110              		.loc 1 383 5 view .LVU297
 1111 003c F0BD     		pop	{r4, r5, r6, r7, pc}
 1112              		.cfi_endproc
 1113              	.LFE3:
 1115              		.section	.rodata.xTimerCreateTimerTask.str1.4,"aMS",%progbits,1
 1116              		.align	2
 1117              	.LC21:
 1118 0000 546D7220 		.ascii	"Tmr Svc\000"
 1118      53766300 
 1119              		.section	.text.xTimerCreateTimerTask,"ax",%progbits
 1120              		.align	1
 1121              		.global	xTimerCreateTimerTask
 1122              		.syntax unified
 1123              		.code	16
 1124              		.thumb_func
 1126              	xTimerCreateTimerTask:
 1127              	.LFB0:
ARM GAS  C:\Users\Yasi\AppData\Local\Temp\ccUhEIlv.s 			page 42


 234:Middlewares/Third_Party/FreeRTOS/Source/timers.c ****         BaseType_t xReturn = pdFAIL;
 1128              		.loc 1 234 5 is_stmt 1 view -0
 1129              		.cfi_startproc
 1130              		@ args = 0, pretend = 0, frame = 16
 1131              		@ frame_needed = 0, uses_anonymous_args = 0
 1132 0000 00B5     		push	{lr}
 1133              	.LCFI15:
 1134              		.cfi_def_cfa_offset 4
 1135              		.cfi_offset 14, -4
 1136 0002 89B0     		sub	sp, sp, #36
 1137              	.LCFI16:
 1138              		.cfi_def_cfa_offset 40
 235:Middlewares/Third_Party/FreeRTOS/Source/timers.c **** 
 1139              		.loc 1 235 9 view .LVU299
 1140              	.LVL107:
 241:Middlewares/Third_Party/FreeRTOS/Source/timers.c **** 
 1141              		.loc 1 241 9 view .LVU300
 1142 0004 FFF7FEFF 		bl	prvCheckForValidListAndQueue
 1143              	.LVL108:
 243:Middlewares/Third_Party/FreeRTOS/Source/timers.c ****         {
 1144              		.loc 1 243 9 view .LVU301
 243:Middlewares/Third_Party/FreeRTOS/Source/timers.c ****         {
 1145              		.loc 1 243 25 is_stmt 0 view .LVU302
 1146 0008 104B     		ldr	r3, .L88
 1147 000a 1B68     		ldr	r3, [r3]
 243:Middlewares/Third_Party/FreeRTOS/Source/timers.c ****         {
 1148              		.loc 1 243 11 view .LVU303
 1149 000c 002B     		cmp	r3, #0
 1150 000e 1AD0     		beq	.L84
 1151              	.LBB4:
 247:Middlewares/Third_Party/FreeRTOS/Source/timers.c ****                 StackType_t * pxTimerTaskStackBuffer = NULL;
 1152              		.loc 1 247 17 is_stmt 1 view .LVU304
 247:Middlewares/Third_Party/FreeRTOS/Source/timers.c ****                 StackType_t * pxTimerTaskStackBuffer = NULL;
 1153              		.loc 1 247 32 is_stmt 0 view .LVU305
 1154 0010 0023     		movs	r3, #0
 1155 0012 0593     		str	r3, [sp, #20]
 248:Middlewares/Third_Party/FreeRTOS/Source/timers.c ****                 uint32_t ulTimerTaskStackSize;
 1156              		.loc 1 248 17 is_stmt 1 view .LVU306
 248:Middlewares/Third_Party/FreeRTOS/Source/timers.c ****                 uint32_t ulTimerTaskStackSize;
 1157              		.loc 1 248 31 is_stmt 0 view .LVU307
 1158 0014 0693     		str	r3, [sp, #24]
 249:Middlewares/Third_Party/FreeRTOS/Source/timers.c **** 
 1159              		.loc 1 249 17 is_stmt 1 view .LVU308
 251:Middlewares/Third_Party/FreeRTOS/Source/timers.c ****                 xTimerTaskHandle = xTaskCreateStatic( prvTimerTask,
 1160              		.loc 1 251 17 view .LVU309
 1161 0016 07AA     		add	r2, sp, #28
 1162 0018 06A9     		add	r1, sp, #24
 1163 001a 05A8     		add	r0, sp, #20
 1164 001c FFF7FEFF 		bl	vApplicationGetTimerTaskMemory
 1165              	.LVL109:
 252:Middlewares/Third_Party/FreeRTOS/Source/timers.c ****                                                       configTIMER_SERVICE_TASK_NAME,
 1166              		.loc 1 252 17 view .LVU310
 252:Middlewares/Third_Party/FreeRTOS/Source/timers.c ****                                                       configTIMER_SERVICE_TASK_NAME,
 1167              		.loc 1 252 36 is_stmt 0 view .LVU311
 1168 0020 079A     		ldr	r2, [sp, #28]
 1169 0022 0B49     		ldr	r1, .L88+4
 1170 0024 0B48     		ldr	r0, .L88+8
ARM GAS  C:\Users\Yasi\AppData\Local\Temp\ccUhEIlv.s 			page 43


 1171 0026 059B     		ldr	r3, [sp, #20]
 1172 0028 0293     		str	r3, [sp, #8]
 1173 002a 069B     		ldr	r3, [sp, #24]
 1174 002c 0193     		str	r3, [sp, #4]
 1175 002e 0223     		movs	r3, #2
 1176 0030 0093     		str	r3, [sp]
 1177 0032 0023     		movs	r3, #0
 1178 0034 FFF7FEFF 		bl	xTaskCreateStatic
 1179              	.LVL110:
 252:Middlewares/Third_Party/FreeRTOS/Source/timers.c ****                                                       configTIMER_SERVICE_TASK_NAME,
 1180              		.loc 1 252 34 discriminator 1 view .LVU312
 1181 0038 074B     		ldr	r3, .L88+12
 1182 003a 1860     		str	r0, [r3]
 260:Middlewares/Third_Party/FreeRTOS/Source/timers.c ****                 {
 1183              		.loc 1 260 17 is_stmt 1 view .LVU313
 260:Middlewares/Third_Party/FreeRTOS/Source/timers.c ****                 {
 1184              		.loc 1 260 19 is_stmt 0 view .LVU314
 1185 003c 0028     		cmp	r0, #0
 1186 003e 02D0     		beq	.L84
 1187              	.LBE4:
 283:Middlewares/Third_Party/FreeRTOS/Source/timers.c **** /*-----------------------------------------------------------*/
 1188              		.loc 1 283 5 view .LVU315
 1189 0040 0120     		movs	r0, #1
 1190 0042 09B0     		add	sp, sp, #36
 1191              		@ sp needed
 1192 0044 00BD     		pop	{pc}
 1193              	.L84:
 1194              	.LVL111:
 281:Middlewares/Third_Party/FreeRTOS/Source/timers.c ****         return xReturn;
 1195              		.loc 1 281 9 is_stmt 1 discriminator 1 view .LVU316
 1196              		.syntax divided
 1197              	@ 281 "Middlewares/Third_Party/FreeRTOS/Source/timers.c" 1
 1198 0046 72B6     		 cpsid i 
 1199              	@ 0 "" 2
 1200              		.thumb
 1201              		.syntax unified
 1202              	.L86:
 281:Middlewares/Third_Party/FreeRTOS/Source/timers.c ****         return xReturn;
 1203              		.loc 1 281 9 discriminator 3 view .LVU317
 281:Middlewares/Third_Party/FreeRTOS/Source/timers.c ****         return xReturn;
 1204              		.loc 1 281 9 discriminator 3 view .LVU318
 1205 0048 FEE7     		b	.L86
 1206              	.L89:
 1207 004a C046     		.align	2
 1208              	.L88:
 1209 004c 00000000 		.word	xTimerQueue
 1210 0050 00000000 		.word	.LC21
 1211 0054 00000000 		.word	prvTimerTask
 1212 0058 00000000 		.word	xTimerTaskHandle
 1213              		.cfi_endproc
 1214              	.LFE0:
 1216              		.section	.text.xTimerCreate,"ax",%progbits
 1217              		.align	1
 1218              		.global	xTimerCreate
 1219              		.syntax unified
 1220              		.code	16
 1221              		.thumb_func
ARM GAS  C:\Users\Yasi\AppData\Local\Temp\ccUhEIlv.s 			page 44


 1223              	xTimerCreate:
 1224              	.LVL112:
 1225              	.LFB1:
 293:Middlewares/Third_Party/FreeRTOS/Source/timers.c ****             Timer_t * pxNewTimer;
 1226              		.loc 1 293 9 view -0
 1227              		.cfi_startproc
 1228              		@ args = 4, pretend = 0, frame = 8
 1229              		@ frame_needed = 0, uses_anonymous_args = 0
 293:Middlewares/Third_Party/FreeRTOS/Source/timers.c ****             Timer_t * pxNewTimer;
 1230              		.loc 1 293 9 is_stmt 0 view .LVU320
 1231 0000 F0B5     		push	{r4, r5, r6, r7, lr}
 1232              	.LCFI17:
 1233              		.cfi_def_cfa_offset 20
 1234              		.cfi_offset 4, -20
 1235              		.cfi_offset 5, -16
 1236              		.cfi_offset 6, -12
 1237              		.cfi_offset 7, -8
 1238              		.cfi_offset 14, -4
 1239 0002 85B0     		sub	sp, sp, #20
 1240              	.LCFI18:
 1241              		.cfi_def_cfa_offset 40
 1242 0004 0390     		str	r0, [sp, #12]
 1243 0006 0D00     		movs	r5, r1
 1244 0008 1600     		movs	r6, r2
 1245 000a 1F00     		movs	r7, r3
 294:Middlewares/Third_Party/FreeRTOS/Source/timers.c **** 
 1246              		.loc 1 294 13 is_stmt 1 view .LVU321
 296:Middlewares/Third_Party/FreeRTOS/Source/timers.c **** 
 1247              		.loc 1 296 13 view .LVU322
 296:Middlewares/Third_Party/FreeRTOS/Source/timers.c **** 
 1248              		.loc 1 296 40 is_stmt 0 view .LVU323
 1249 000c 2C20     		movs	r0, #44
 1250              	.LVL113:
 296:Middlewares/Third_Party/FreeRTOS/Source/timers.c **** 
 1251              		.loc 1 296 40 view .LVU324
 1252 000e FFF7FEFF 		bl	pvPortMalloc
 1253              	.LVL114:
 296:Middlewares/Third_Party/FreeRTOS/Source/timers.c **** 
 1254              		.loc 1 296 40 view .LVU325
 1255 0012 041E     		subs	r4, r0, #0
 1256              	.LVL115:
 298:Middlewares/Third_Party/FreeRTOS/Source/timers.c ****             {
 1257              		.loc 1 298 13 is_stmt 1 view .LVU326
 298:Middlewares/Third_Party/FreeRTOS/Source/timers.c ****             {
 1258              		.loc 1 298 15 is_stmt 0 view .LVU327
 1259 0014 0BD0     		beq	.L90
 303:Middlewares/Third_Party/FreeRTOS/Source/timers.c ****                 prvInitialiseNewTimer( pcTimerName, xTimerPeriodInTicks, xAutoReload, pvTimerID, px
 1260              		.loc 1 303 17 is_stmt 1 view .LVU328
 303:Middlewares/Third_Party/FreeRTOS/Source/timers.c ****                 prvInitialiseNewTimer( pcTimerName, xTimerPeriodInTicks, xAutoReload, pvTimerID, px
 1261              		.loc 1 303 38 is_stmt 0 view .LVU329
 1262 0016 2823     		movs	r3, #40
 1263 0018 0022     		movs	r2, #0
 1264 001a C254     		strb	r2, [r0, r3]
 304:Middlewares/Third_Party/FreeRTOS/Source/timers.c ****             }
 1265              		.loc 1 304 17 is_stmt 1 view .LVU330
 1266 001c 0190     		str	r0, [sp, #4]
 1267 001e 0A9B     		ldr	r3, [sp, #40]
ARM GAS  C:\Users\Yasi\AppData\Local\Temp\ccUhEIlv.s 			page 45


 1268 0020 0093     		str	r3, [sp]
 1269 0022 3B00     		movs	r3, r7
 1270 0024 3200     		movs	r2, r6
 1271 0026 2900     		movs	r1, r5
 1272 0028 0398     		ldr	r0, [sp, #12]
 1273              	.LVL116:
 304:Middlewares/Third_Party/FreeRTOS/Source/timers.c ****             }
 1274              		.loc 1 304 17 is_stmt 0 view .LVU331
 1275 002a FFF7FEFF 		bl	prvInitialiseNewTimer
 1276              	.LVL117:
 307:Middlewares/Third_Party/FreeRTOS/Source/timers.c ****         }
 1277              		.loc 1 307 13 is_stmt 1 view .LVU332
 1278              	.L90:
 308:Middlewares/Third_Party/FreeRTOS/Source/timers.c **** 
 1279              		.loc 1 308 9 is_stmt 0 view .LVU333
 1280 002e 2000     		movs	r0, r4
 1281 0030 05B0     		add	sp, sp, #20
 1282              		@ sp needed
 1283              	.LVL118:
 1284              	.LVL119:
 1285              	.LVL120:
 1286              	.LVL121:
 308:Middlewares/Third_Party/FreeRTOS/Source/timers.c **** 
 1287              		.loc 1 308 9 view .LVU334
 1288 0032 F0BD     		pop	{r4, r5, r6, r7, pc}
 1289              		.cfi_endproc
 1290              	.LFE1:
 1292              		.section	.text.xTimerCreateStatic,"ax",%progbits
 1293              		.align	1
 1294              		.global	xTimerCreateStatic
 1295              		.syntax unified
 1296              		.code	16
 1297              		.thumb_func
 1299              	xTimerCreateStatic:
 1300              	.LVL122:
 1301              	.LFB2:
 321:Middlewares/Third_Party/FreeRTOS/Source/timers.c ****             Timer_t * pxNewTimer;
 1302              		.loc 1 321 9 is_stmt 1 view -0
 1303              		.cfi_startproc
 1304              		@ args = 8, pretend = 0, frame = 8
 1305              		@ frame_needed = 0, uses_anonymous_args = 0
 321:Middlewares/Third_Party/FreeRTOS/Source/timers.c ****             Timer_t * pxNewTimer;
 1306              		.loc 1 321 9 is_stmt 0 view .LVU336
 1307 0000 70B5     		push	{r4, r5, r6, lr}
 1308              	.LCFI19:
 1309              		.cfi_def_cfa_offset 16
 1310              		.cfi_offset 4, -16
 1311              		.cfi_offset 5, -12
 1312              		.cfi_offset 6, -8
 1313              		.cfi_offset 14, -4
 1314 0002 84B0     		sub	sp, sp, #16
 1315              	.LCFI20:
 1316              		.cfi_def_cfa_offset 32
 322:Middlewares/Third_Party/FreeRTOS/Source/timers.c **** 
 1317              		.loc 1 322 13 is_stmt 1 view .LVU337
 1318              	.LBB5:
 329:Middlewares/Third_Party/FreeRTOS/Source/timers.c ****                 configASSERT( xSize == sizeof( Timer_t ) );
ARM GAS  C:\Users\Yasi\AppData\Local\Temp\ccUhEIlv.s 			page 46


 1319              		.loc 1 329 17 view .LVU338
 329:Middlewares/Third_Party/FreeRTOS/Source/timers.c ****                 configASSERT( xSize == sizeof( Timer_t ) );
 1320              		.loc 1 329 33 is_stmt 0 view .LVU339
 1321 0004 2C24     		movs	r4, #44
 1322 0006 0394     		str	r4, [sp, #12]
 330:Middlewares/Third_Party/FreeRTOS/Source/timers.c ****                 ( void ) xSize; /* Keeps lint quiet when configASSERT() is not defined. */
 1323              		.loc 1 330 17 is_stmt 1 view .LVU340
 1324 0008 039C     		ldr	r4, [sp, #12]
 1325 000a 2C2C     		cmp	r4, #44
 1326 000c 01D0     		beq	.L93
 330:Middlewares/Third_Party/FreeRTOS/Source/timers.c ****                 ( void ) xSize; /* Keeps lint quiet when configASSERT() is not defined. */
 1327              		.loc 1 330 17 discriminator 1 view .LVU341
 1328              		.syntax divided
 1329              	@ 330 "Middlewares/Third_Party/FreeRTOS/Source/timers.c" 1
 1330 000e 72B6     		 cpsid i 
 1331              	@ 0 "" 2
 1332              		.thumb
 1333              		.syntax unified
 1334              	.L94:
 330:Middlewares/Third_Party/FreeRTOS/Source/timers.c ****                 ( void ) xSize; /* Keeps lint quiet when configASSERT() is not defined. */
 1335              		.loc 1 330 17 discriminator 3 view .LVU342
 330:Middlewares/Third_Party/FreeRTOS/Source/timers.c ****                 ( void ) xSize; /* Keeps lint quiet when configASSERT() is not defined. */
 1336              		.loc 1 330 17 discriminator 3 view .LVU343
 1337 0010 FEE7     		b	.L94
 1338              	.L93:
 330:Middlewares/Third_Party/FreeRTOS/Source/timers.c ****                 ( void ) xSize; /* Keeps lint quiet when configASSERT() is not defined. */
 1339              		.loc 1 330 59 discriminator 2 view .LVU344
 331:Middlewares/Third_Party/FreeRTOS/Source/timers.c ****             }
 1340              		.loc 1 331 17 view .LVU345
 1341 0012 039C     		ldr	r4, [sp, #12]
 1342              	.LBE5:
 336:Middlewares/Third_Party/FreeRTOS/Source/timers.c ****             pxNewTimer = ( Timer_t * ) pxTimerBuffer; /*lint !e740 !e9087 StaticTimer_t is a pointe
 1343              		.loc 1 336 13 view .LVU346
 1344 0014 099C     		ldr	r4, [sp, #36]
 1345 0016 002C     		cmp	r4, #0
 1346 0018 0BD0     		beq	.L97
 336:Middlewares/Third_Party/FreeRTOS/Source/timers.c ****             pxNewTimer = ( Timer_t * ) pxTimerBuffer; /*lint !e740 !e9087 StaticTimer_t is a pointe
 1347              		.loc 1 336 42 discriminator 2 view .LVU347
 337:Middlewares/Third_Party/FreeRTOS/Source/timers.c **** 
 1348              		.loc 1 337 13 view .LVU348
 1349              	.LVL123:
 339:Middlewares/Third_Party/FreeRTOS/Source/timers.c ****             {
 1350              		.loc 1 339 13 view .LVU349
 344:Middlewares/Third_Party/FreeRTOS/Source/timers.c **** 
 1351              		.loc 1 344 17 view .LVU350
 344:Middlewares/Third_Party/FreeRTOS/Source/timers.c **** 
 1352              		.loc 1 344 38 is_stmt 0 view .LVU351
 1353 001a 2824     		movs	r4, #40
 1354              	.LVL124:
 344:Middlewares/Third_Party/FreeRTOS/Source/timers.c **** 
 1355              		.loc 1 344 38 view .LVU352
 1356 001c 0225     		movs	r5, #2
 1357 001e 099E     		ldr	r6, [sp, #36]
 1358 0020 3555     		strb	r5, [r6, r4]
 346:Middlewares/Third_Party/FreeRTOS/Source/timers.c ****             }
 1359              		.loc 1 346 17 is_stmt 1 view .LVU353
 1360 0022 0196     		str	r6, [sp, #4]
ARM GAS  C:\Users\Yasi\AppData\Local\Temp\ccUhEIlv.s 			page 47


 1361 0024 089C     		ldr	r4, [sp, #32]
 1362 0026 0094     		str	r4, [sp]
 1363 0028 FFF7FEFF 		bl	prvInitialiseNewTimer
 1364              	.LVL125:
 349:Middlewares/Third_Party/FreeRTOS/Source/timers.c ****         }
 1365              		.loc 1 349 13 view .LVU354
 350:Middlewares/Third_Party/FreeRTOS/Source/timers.c **** 
 1366              		.loc 1 350 9 is_stmt 0 view .LVU355
 1367 002c 0998     		ldr	r0, [sp, #36]
 1368 002e 04B0     		add	sp, sp, #16
 1369              		@ sp needed
 1370 0030 70BD     		pop	{r4, r5, r6, pc}
 1371              	.LVL126:
 1372              	.L97:
 336:Middlewares/Third_Party/FreeRTOS/Source/timers.c ****             pxNewTimer = ( Timer_t * ) pxTimerBuffer; /*lint !e740 !e9087 StaticTimer_t is a pointe
 1373              		.loc 1 336 13 is_stmt 1 discriminator 1 view .LVU356
 1374              		.syntax divided
 1375              	@ 336 "Middlewares/Third_Party/FreeRTOS/Source/timers.c" 1
 1376 0032 72B6     		 cpsid i 
 1377              	@ 0 "" 2
 1378              		.thumb
 1379              		.syntax unified
 1380              	.L96:
 336:Middlewares/Third_Party/FreeRTOS/Source/timers.c ****             pxNewTimer = ( Timer_t * ) pxTimerBuffer; /*lint !e740 !e9087 StaticTimer_t is a pointe
 1381              		.loc 1 336 13 discriminator 3 view .LVU357
 336:Middlewares/Third_Party/FreeRTOS/Source/timers.c ****             pxNewTimer = ( Timer_t * ) pxTimerBuffer; /*lint !e740 !e9087 StaticTimer_t is a pointe
 1382              		.loc 1 336 13 discriminator 3 view .LVU358
 1383 0034 FEE7     		b	.L96
 1384              		.cfi_endproc
 1385              	.LFE2:
 1387              		.section	.text.xTimerGenericCommand,"ax",%progbits
 1388              		.align	1
 1389              		.global	xTimerGenericCommand
 1390              		.syntax unified
 1391              		.code	16
 1392              		.thumb_func
 1394              	xTimerGenericCommand:
 1395              	.LVL127:
 1396              	.LFB4:
 391:Middlewares/Third_Party/FreeRTOS/Source/timers.c ****         BaseType_t xReturn = pdFAIL;
 1397              		.loc 1 391 5 view -0
 1398              		.cfi_startproc
 1399              		@ args = 4, pretend = 0, frame = 16
 1400              		@ frame_needed = 0, uses_anonymous_args = 0
 391:Middlewares/Third_Party/FreeRTOS/Source/timers.c ****         BaseType_t xReturn = pdFAIL;
 1401              		.loc 1 391 5 is_stmt 0 view .LVU360
 1402 0000 30B5     		push	{r4, r5, lr}
 1403              	.LCFI21:
 1404              		.cfi_def_cfa_offset 12
 1405              		.cfi_offset 4, -12
 1406              		.cfi_offset 5, -8
 1407              		.cfi_offset 14, -4
 1408 0002 85B0     		sub	sp, sp, #20
 1409              	.LCFI22:
 1410              		.cfi_def_cfa_offset 32
 1411 0004 1C00     		movs	r4, r3
 392:Middlewares/Third_Party/FreeRTOS/Source/timers.c ****         DaemonTaskMessage_t xMessage;
ARM GAS  C:\Users\Yasi\AppData\Local\Temp\ccUhEIlv.s 			page 48


 1412              		.loc 1 392 9 is_stmt 1 view .LVU361
 1413              	.LVL128:
 393:Middlewares/Third_Party/FreeRTOS/Source/timers.c **** 
 1414              		.loc 1 393 9 view .LVU362
 395:Middlewares/Third_Party/FreeRTOS/Source/timers.c **** 
 1415              		.loc 1 395 9 view .LVU363
 1416 0006 0028     		cmp	r0, #0
 1417 0008 14D0     		beq	.L105
 395:Middlewares/Third_Party/FreeRTOS/Source/timers.c **** 
 1418              		.loc 1 395 31 discriminator 2 view .LVU364
 399:Middlewares/Third_Party/FreeRTOS/Source/timers.c ****         {
 1419              		.loc 1 399 9 view .LVU365
 399:Middlewares/Third_Party/FreeRTOS/Source/timers.c ****         {
 1420              		.loc 1 399 25 is_stmt 0 view .LVU366
 1421 000a 144B     		ldr	r3, .L107
 1422              	.LVL129:
 399:Middlewares/Third_Party/FreeRTOS/Source/timers.c ****         {
 1423              		.loc 1 399 25 view .LVU367
 1424 000c 1D68     		ldr	r5, [r3]
 399:Middlewares/Third_Party/FreeRTOS/Source/timers.c ****         {
 1425              		.loc 1 399 11 view .LVU368
 1426 000e 002D     		cmp	r5, #0
 1427 0010 22D0     		beq	.L104
 402:Middlewares/Third_Party/FreeRTOS/Source/timers.c ****             xMessage.u.xTimerParameters.xMessageValue = xOptionalValue;
 1428              		.loc 1 402 13 is_stmt 1 view .LVU369
 402:Middlewares/Third_Party/FreeRTOS/Source/timers.c ****             xMessage.u.xTimerParameters.xMessageValue = xOptionalValue;
 1429              		.loc 1 402 33 is_stmt 0 view .LVU370
 1430 0012 0091     		str	r1, [sp]
 403:Middlewares/Third_Party/FreeRTOS/Source/timers.c ****             xMessage.u.xTimerParameters.pxTimer = xTimer;
 1431              		.loc 1 403 13 is_stmt 1 view .LVU371
 403:Middlewares/Third_Party/FreeRTOS/Source/timers.c ****             xMessage.u.xTimerParameters.pxTimer = xTimer;
 1432              		.loc 1 403 55 is_stmt 0 view .LVU372
 1433 0014 0192     		str	r2, [sp, #4]
 404:Middlewares/Third_Party/FreeRTOS/Source/timers.c **** 
 1434              		.loc 1 404 13 is_stmt 1 view .LVU373
 404:Middlewares/Third_Party/FreeRTOS/Source/timers.c **** 
 1435              		.loc 1 404 49 is_stmt 0 view .LVU374
 1436 0016 0290     		str	r0, [sp, #8]
 406:Middlewares/Third_Party/FreeRTOS/Source/timers.c ****             {
 1437              		.loc 1 406 13 is_stmt 1 view .LVU375
 406:Middlewares/Third_Party/FreeRTOS/Source/timers.c ****             {
 1438              		.loc 1 406 15 is_stmt 0 view .LVU376
 1439 0018 0529     		cmp	r1, #5
 1440 001a 15DC     		bgt	.L102
 408:Middlewares/Third_Party/FreeRTOS/Source/timers.c ****                 {
 1441              		.loc 1 408 17 is_stmt 1 view .LVU377
 408:Middlewares/Third_Party/FreeRTOS/Source/timers.c ****                 {
 1442              		.loc 1 408 21 is_stmt 0 view .LVU378
 1443 001c FFF7FEFF 		bl	xTaskGetSchedulerState
 1444              	.LVL130:
 408:Middlewares/Third_Party/FreeRTOS/Source/timers.c ****                 {
 1445              		.loc 1 408 19 discriminator 1 view .LVU379
 1446 0020 0228     		cmp	r0, #2
 1447 0022 09D0     		beq	.L106
 414:Middlewares/Third_Party/FreeRTOS/Source/timers.c ****                 }
 1448              		.loc 1 414 21 is_stmt 1 view .LVU380
 414:Middlewares/Third_Party/FreeRTOS/Source/timers.c ****                 }
ARM GAS  C:\Users\Yasi\AppData\Local\Temp\ccUhEIlv.s 			page 49


 1449              		.loc 1 414 31 is_stmt 0 view .LVU381
 1450 0024 0D4B     		ldr	r3, .L107
 1451 0026 1868     		ldr	r0, [r3]
 1452 0028 0023     		movs	r3, #0
 1453 002a 0022     		movs	r2, #0
 1454 002c 6946     		mov	r1, sp
 1455 002e FFF7FEFF 		bl	xQueueGenericSend
 1456              	.LVL131:
 414:Middlewares/Third_Party/FreeRTOS/Source/timers.c ****                 }
 1457              		.loc 1 414 31 view .LVU382
 1458 0032 0FE0     		b	.L98
 1459              	.LVL132:
 1460              	.L105:
 395:Middlewares/Third_Party/FreeRTOS/Source/timers.c **** 
 1461              		.loc 1 395 9 is_stmt 1 discriminator 1 view .LVU383
 1462              		.syntax divided
 1463              	@ 395 "Middlewares/Third_Party/FreeRTOS/Source/timers.c" 1
 1464 0034 72B6     		 cpsid i 
 1465              	@ 0 "" 2
 1466              		.thumb
 1467              		.syntax unified
 1468              	.L100:
 395:Middlewares/Third_Party/FreeRTOS/Source/timers.c **** 
 1469              		.loc 1 395 9 discriminator 3 view .LVU384
 395:Middlewares/Third_Party/FreeRTOS/Source/timers.c **** 
 1470              		.loc 1 395 9 discriminator 3 view .LVU385
 1471 0036 FEE7     		b	.L100
 1472              	.LVL133:
 1473              	.L106:
 410:Middlewares/Third_Party/FreeRTOS/Source/timers.c ****                 }
 1474              		.loc 1 410 21 view .LVU386
 410:Middlewares/Third_Party/FreeRTOS/Source/timers.c ****                 }
 1475              		.loc 1 410 31 is_stmt 0 view .LVU387
 1476 0038 084B     		ldr	r3, .L107
 1477 003a 1868     		ldr	r0, [r3]
 1478 003c 0023     		movs	r3, #0
 1479 003e 089A     		ldr	r2, [sp, #32]
 1480 0040 6946     		mov	r1, sp
 1481 0042 FFF7FEFF 		bl	xQueueGenericSend
 1482              	.LVL134:
 410:Middlewares/Third_Party/FreeRTOS/Source/timers.c ****                 }
 1483              		.loc 1 410 31 view .LVU388
 1484 0046 05E0     		b	.L98
 1485              	.LVL135:
 1486              	.L102:
 419:Middlewares/Third_Party/FreeRTOS/Source/timers.c ****             }
 1487              		.loc 1 419 17 is_stmt 1 view .LVU389
 419:Middlewares/Third_Party/FreeRTOS/Source/timers.c ****             }
 1488              		.loc 1 419 27 is_stmt 0 view .LVU390
 1489 0048 0023     		movs	r3, #0
 1490 004a 2200     		movs	r2, r4
 1491              	.LVL136:
 419:Middlewares/Third_Party/FreeRTOS/Source/timers.c ****             }
 1492              		.loc 1 419 27 view .LVU391
 1493 004c 6946     		mov	r1, sp
 1494              	.LVL137:
 419:Middlewares/Third_Party/FreeRTOS/Source/timers.c ****             }
ARM GAS  C:\Users\Yasi\AppData\Local\Temp\ccUhEIlv.s 			page 50


 1495              		.loc 1 419 27 view .LVU392
 1496 004e 2800     		movs	r0, r5
 1497              	.LVL138:
 419:Middlewares/Third_Party/FreeRTOS/Source/timers.c ****             }
 1498              		.loc 1 419 27 view .LVU393
 1499 0050 FFF7FEFF 		bl	xQueueGenericSendFromISR
 1500              	.LVL139:
 1501              	.L98:
 430:Middlewares/Third_Party/FreeRTOS/Source/timers.c **** /*-----------------------------------------------------------*/
 1502              		.loc 1 430 5 view .LVU394
 1503 0054 05B0     		add	sp, sp, #20
 1504              		@ sp needed
 1505              	.LVL140:
 430:Middlewares/Third_Party/FreeRTOS/Source/timers.c **** /*-----------------------------------------------------------*/
 1506              		.loc 1 430 5 view .LVU395
 1507 0056 30BD     		pop	{r4, r5, pc}
 1508              	.LVL141:
 1509              	.L104:
 392:Middlewares/Third_Party/FreeRTOS/Source/timers.c ****         DaemonTaskMessage_t xMessage;
 1510              		.loc 1 392 20 view .LVU396
 1511 0058 0020     		movs	r0, #0
 1512              	.LVL142:
 426:Middlewares/Third_Party/FreeRTOS/Source/timers.c ****         }
 1513              		.loc 1 426 37 is_stmt 1 view .LVU397
 429:Middlewares/Third_Party/FreeRTOS/Source/timers.c ****     }
 1514              		.loc 1 429 9 view .LVU398
 429:Middlewares/Third_Party/FreeRTOS/Source/timers.c ****     }
 1515              		.loc 1 429 16 is_stmt 0 view .LVU399
 1516 005a FBE7     		b	.L98
 1517              	.L108:
 1518              		.align	2
 1519              	.L107:
 1520 005c 00000000 		.word	xTimerQueue
 1521              		.cfi_endproc
 1522              	.LFE4:
 1524              		.section	.text.xTimerGetTimerDaemonTaskHandle,"ax",%progbits
 1525              		.align	1
 1526              		.global	xTimerGetTimerDaemonTaskHandle
 1527              		.syntax unified
 1528              		.code	16
 1529              		.thumb_func
 1531              	xTimerGetTimerDaemonTaskHandle:
 1532              	.LFB5:
 434:Middlewares/Third_Party/FreeRTOS/Source/timers.c ****         /* If xTimerGetTimerDaemonTaskHandle() is called before the scheduler has been
 1533              		.loc 1 434 5 is_stmt 1 view -0
 1534              		.cfi_startproc
 1535              		@ args = 0, pretend = 0, frame = 0
 1536              		@ frame_needed = 0, uses_anonymous_args = 0
 1537              		@ link register save eliminated.
 437:Middlewares/Third_Party/FreeRTOS/Source/timers.c ****         return xTimerTaskHandle;
 1538              		.loc 1 437 9 view .LVU401
 1539 0000 034B     		ldr	r3, .L113
 1540 0002 1868     		ldr	r0, [r3]
 1541 0004 0028     		cmp	r0, #0
 1542 0006 00D0     		beq	.L112
 439:Middlewares/Third_Party/FreeRTOS/Source/timers.c **** /*-----------------------------------------------------------*/
 1543              		.loc 1 439 5 is_stmt 0 view .LVU402
ARM GAS  C:\Users\Yasi\AppData\Local\Temp\ccUhEIlv.s 			page 51


 1544              		@ sp needed
 1545 0008 7047     		bx	lr
 1546              	.L112:
 437:Middlewares/Third_Party/FreeRTOS/Source/timers.c ****         return xTimerTaskHandle;
 1547              		.loc 1 437 9 is_stmt 1 discriminator 1 view .LVU403
 1548              		.syntax divided
 1549              	@ 437 "Middlewares/Third_Party/FreeRTOS/Source/timers.c" 1
 1550 000a 72B6     		 cpsid i 
 1551              	@ 0 "" 2
 1552              		.thumb
 1553              		.syntax unified
 1554              	.L111:
 437:Middlewares/Third_Party/FreeRTOS/Source/timers.c ****         return xTimerTaskHandle;
 1555              		.loc 1 437 9 discriminator 3 view .LVU404
 437:Middlewares/Third_Party/FreeRTOS/Source/timers.c ****         return xTimerTaskHandle;
 1556              		.loc 1 437 9 discriminator 3 view .LVU405
 1557 000c FEE7     		b	.L111
 1558              	.L114:
 1559 000e C046     		.align	2
 1560              	.L113:
 1561 0010 00000000 		.word	xTimerTaskHandle
 1562              		.cfi_endproc
 1563              	.LFE5:
 1565              		.section	.text.xTimerGetPeriod,"ax",%progbits
 1566              		.align	1
 1567              		.global	xTimerGetPeriod
 1568              		.syntax unified
 1569              		.code	16
 1570              		.thumb_func
 1572              	xTimerGetPeriod:
 1573              	.LVL143:
 1574              	.LFB6:
 443:Middlewares/Third_Party/FreeRTOS/Source/timers.c ****         Timer_t * pxTimer = xTimer;
 1575              		.loc 1 443 5 view -0
 1576              		.cfi_startproc
 1577              		@ args = 0, pretend = 0, frame = 0
 1578              		@ frame_needed = 0, uses_anonymous_args = 0
 1579              		@ link register save eliminated.
 444:Middlewares/Third_Party/FreeRTOS/Source/timers.c **** 
 1580              		.loc 1 444 9 view .LVU407
 446:Middlewares/Third_Party/FreeRTOS/Source/timers.c ****         return pxTimer->xTimerPeriodInTicks;
 1581              		.loc 1 446 9 view .LVU408
 1582 0000 0028     		cmp	r0, #0
 1583 0002 01D0     		beq	.L118
 446:Middlewares/Third_Party/FreeRTOS/Source/timers.c ****         return pxTimer->xTimerPeriodInTicks;
 1584              		.loc 1 446 31 discriminator 2 view .LVU409
 447:Middlewares/Third_Party/FreeRTOS/Source/timers.c ****     }
 1585              		.loc 1 447 9 view .LVU410
 447:Middlewares/Third_Party/FreeRTOS/Source/timers.c ****     }
 1586              		.loc 1 447 23 is_stmt 0 discriminator 1 view .LVU411
 1587 0004 8069     		ldr	r0, [r0, #24]
 1588              	.LVL144:
 448:Middlewares/Third_Party/FreeRTOS/Source/timers.c **** /*-----------------------------------------------------------*/
 1589              		.loc 1 448 5 view .LVU412
 1590              		@ sp needed
 1591 0006 7047     		bx	lr
 1592              	.LVL145:
ARM GAS  C:\Users\Yasi\AppData\Local\Temp\ccUhEIlv.s 			page 52


 1593              	.L118:
 446:Middlewares/Third_Party/FreeRTOS/Source/timers.c ****         return pxTimer->xTimerPeriodInTicks;
 1594              		.loc 1 446 9 is_stmt 1 discriminator 1 view .LVU413
 1595              		.syntax divided
 1596              	@ 446 "Middlewares/Third_Party/FreeRTOS/Source/timers.c" 1
 1597 0008 72B6     		 cpsid i 
 1598              	@ 0 "" 2
 1599              		.thumb
 1600              		.syntax unified
 1601              	.L117:
 446:Middlewares/Third_Party/FreeRTOS/Source/timers.c ****         return pxTimer->xTimerPeriodInTicks;
 1602              		.loc 1 446 9 discriminator 3 view .LVU414
 446:Middlewares/Third_Party/FreeRTOS/Source/timers.c ****         return pxTimer->xTimerPeriodInTicks;
 1603              		.loc 1 446 9 discriminator 3 view .LVU415
 1604 000a FEE7     		b	.L117
 1605              		.cfi_endproc
 1606              	.LFE6:
 1608              		.section	.text.vTimerSetReloadMode,"ax",%progbits
 1609              		.align	1
 1610              		.global	vTimerSetReloadMode
 1611              		.syntax unified
 1612              		.code	16
 1613              		.thumb_func
 1615              	vTimerSetReloadMode:
 1616              	.LVL146:
 1617              	.LFB7:
 453:Middlewares/Third_Party/FreeRTOS/Source/timers.c ****         Timer_t * pxTimer = xTimer;
 1618              		.loc 1 453 5 view -0
 1619              		.cfi_startproc
 1620              		@ args = 0, pretend = 0, frame = 0
 1621              		@ frame_needed = 0, uses_anonymous_args = 0
 453:Middlewares/Third_Party/FreeRTOS/Source/timers.c ****         Timer_t * pxTimer = xTimer;
 1622              		.loc 1 453 5 is_stmt 0 view .LVU417
 1623 0000 70B5     		push	{r4, r5, r6, lr}
 1624              	.LCFI23:
 1625              		.cfi_def_cfa_offset 16
 1626              		.cfi_offset 4, -16
 1627              		.cfi_offset 5, -12
 1628              		.cfi_offset 6, -8
 1629              		.cfi_offset 14, -4
 1630 0002 0400     		movs	r4, r0
 1631 0004 0D00     		movs	r5, r1
 454:Middlewares/Third_Party/FreeRTOS/Source/timers.c **** 
 1632              		.loc 1 454 9 is_stmt 1 view .LVU418
 1633              	.LVL147:
 456:Middlewares/Third_Party/FreeRTOS/Source/timers.c ****         taskENTER_CRITICAL();
 1634              		.loc 1 456 9 view .LVU419
 1635 0006 0028     		cmp	r0, #0
 1636 0008 0BD0     		beq	.L124
 456:Middlewares/Third_Party/FreeRTOS/Source/timers.c ****         taskENTER_CRITICAL();
 1637              		.loc 1 456 31 discriminator 2 view .LVU420
 457:Middlewares/Third_Party/FreeRTOS/Source/timers.c ****         {
 1638              		.loc 1 457 9 view .LVU421
 1639 000a FFF7FEFF 		bl	vPortEnterCritical
 1640              	.LVL148:
 459:Middlewares/Third_Party/FreeRTOS/Source/timers.c ****             {
 1641              		.loc 1 459 13 view .LVU422
ARM GAS  C:\Users\Yasi\AppData\Local\Temp\ccUhEIlv.s 			page 53


 459:Middlewares/Third_Party/FreeRTOS/Source/timers.c ****             {
 1642              		.loc 1 459 15 is_stmt 0 view .LVU423
 1643 000e 002D     		cmp	r5, #0
 1644 0010 09D0     		beq	.L122
 461:Middlewares/Third_Party/FreeRTOS/Source/timers.c ****             }
 1645              		.loc 1 461 17 is_stmt 1 view .LVU424
 461:Middlewares/Third_Party/FreeRTOS/Source/timers.c ****             }
 1646              		.loc 1 461 24 is_stmt 0 view .LVU425
 1647 0012 2822     		movs	r2, #40
 1648 0014 A35C     		ldrb	r3, [r4, r2]
 461:Middlewares/Third_Party/FreeRTOS/Source/timers.c ****             }
 1649              		.loc 1 461 35 view .LVU426
 1650 0016 0421     		movs	r1, #4
 1651 0018 0B43     		orrs	r3, r1
 1652 001a A354     		strb	r3, [r4, r2]
 1653              	.L123:
 468:Middlewares/Third_Party/FreeRTOS/Source/timers.c ****     }
 1654              		.loc 1 468 9 is_stmt 1 view .LVU427
 1655 001c FFF7FEFF 		bl	vPortExitCritical
 1656              	.LVL149:
 469:Middlewares/Third_Party/FreeRTOS/Source/timers.c **** /*-----------------------------------------------------------*/
 1657              		.loc 1 469 5 is_stmt 0 view .LVU428
 1658              		@ sp needed
 1659              	.LVL150:
 1660              	.LVL151:
 469:Middlewares/Third_Party/FreeRTOS/Source/timers.c **** /*-----------------------------------------------------------*/
 1661              		.loc 1 469 5 view .LVU429
 1662 0020 70BD     		pop	{r4, r5, r6, pc}
 1663              	.LVL152:
 1664              	.L124:
 456:Middlewares/Third_Party/FreeRTOS/Source/timers.c ****         taskENTER_CRITICAL();
 1665              		.loc 1 456 9 is_stmt 1 discriminator 1 view .LVU430
 1666              		.syntax divided
 1667              	@ 456 "Middlewares/Third_Party/FreeRTOS/Source/timers.c" 1
 1668 0022 72B6     		 cpsid i 
 1669              	@ 0 "" 2
 1670              		.thumb
 1671              		.syntax unified
 1672              	.L121:
 456:Middlewares/Third_Party/FreeRTOS/Source/timers.c ****         taskENTER_CRITICAL();
 1673              		.loc 1 456 9 discriminator 3 view .LVU431
 456:Middlewares/Third_Party/FreeRTOS/Source/timers.c ****         taskENTER_CRITICAL();
 1674              		.loc 1 456 9 discriminator 3 view .LVU432
 1675 0024 FEE7     		b	.L121
 1676              	.LVL153:
 1677              	.L122:
 465:Middlewares/Third_Party/FreeRTOS/Source/timers.c ****             }
 1678              		.loc 1 465 17 view .LVU433
 465:Middlewares/Third_Party/FreeRTOS/Source/timers.c ****             }
 1679              		.loc 1 465 24 is_stmt 0 view .LVU434
 1680 0026 2822     		movs	r2, #40
 1681 0028 A35C     		ldrb	r3, [r4, r2]
 465:Middlewares/Third_Party/FreeRTOS/Source/timers.c ****             }
 1682              		.loc 1 465 35 view .LVU435
 1683 002a 0421     		movs	r1, #4
 1684 002c 8B43     		bics	r3, r1
 1685 002e A354     		strb	r3, [r4, r2]
ARM GAS  C:\Users\Yasi\AppData\Local\Temp\ccUhEIlv.s 			page 54


 1686 0030 F4E7     		b	.L123
 1687              		.cfi_endproc
 1688              	.LFE7:
 1690              		.section	.text.xTimerGetReloadMode,"ax",%progbits
 1691              		.align	1
 1692              		.global	xTimerGetReloadMode
 1693              		.syntax unified
 1694              		.code	16
 1695              		.thumb_func
 1697              	xTimerGetReloadMode:
 1698              	.LVL154:
 1699              	.LFB8:
 473:Middlewares/Third_Party/FreeRTOS/Source/timers.c ****         Timer_t * pxTimer = xTimer;
 1700              		.loc 1 473 5 is_stmt 1 view -0
 1701              		.cfi_startproc
 1702              		@ args = 0, pretend = 0, frame = 0
 1703              		@ frame_needed = 0, uses_anonymous_args = 0
 473:Middlewares/Third_Party/FreeRTOS/Source/timers.c ****         Timer_t * pxTimer = xTimer;
 1704              		.loc 1 473 5 is_stmt 0 view .LVU437
 1705 0000 10B5     		push	{r4, lr}
 1706              	.LCFI24:
 1707              		.cfi_def_cfa_offset 8
 1708              		.cfi_offset 4, -8
 1709              		.cfi_offset 14, -4
 1710 0002 041E     		subs	r4, r0, #0
 474:Middlewares/Third_Party/FreeRTOS/Source/timers.c ****         BaseType_t xReturn;
 1711              		.loc 1 474 9 is_stmt 1 view .LVU438
 1712              	.LVL155:
 475:Middlewares/Third_Party/FreeRTOS/Source/timers.c **** 
 1713              		.loc 1 475 9 view .LVU439
 477:Middlewares/Third_Party/FreeRTOS/Source/timers.c ****         taskENTER_CRITICAL();
 1714              		.loc 1 477 9 view .LVU440
 1715 0004 0AD0     		beq	.L130
 477:Middlewares/Third_Party/FreeRTOS/Source/timers.c ****         taskENTER_CRITICAL();
 1716              		.loc 1 477 31 discriminator 2 view .LVU441
 478:Middlewares/Third_Party/FreeRTOS/Source/timers.c ****         {
 1717              		.loc 1 478 9 view .LVU442
 1718 0006 FFF7FEFF 		bl	vPortEnterCritical
 1719              	.LVL156:
 480:Middlewares/Third_Party/FreeRTOS/Source/timers.c ****             {
 1720              		.loc 1 480 13 view .LVU443
 480:Middlewares/Third_Party/FreeRTOS/Source/timers.c ****             {
 1721              		.loc 1 480 26 is_stmt 0 view .LVU444
 1722 000a 2823     		movs	r3, #40
 1723 000c E35C     		ldrb	r3, [r4, r3]
 480:Middlewares/Third_Party/FreeRTOS/Source/timers.c ****             {
 1724              		.loc 1 480 15 view .LVU445
 1725 000e 5B07     		lsls	r3, r3, #29
 1726 0010 06D4     		bmi	.L129
 483:Middlewares/Third_Party/FreeRTOS/Source/timers.c ****             }
 1727              		.loc 1 483 25 view .LVU446
 1728 0012 0024     		movs	r4, #0
 1729              	.LVL157:
 1730              	.L128:
 491:Middlewares/Third_Party/FreeRTOS/Source/timers.c **** 
 1731              		.loc 1 491 9 is_stmt 1 view .LVU447
 1732 0014 FFF7FEFF 		bl	vPortExitCritical
ARM GAS  C:\Users\Yasi\AppData\Local\Temp\ccUhEIlv.s 			page 55


 1733              	.LVL158:
 493:Middlewares/Third_Party/FreeRTOS/Source/timers.c ****     }
 1734              		.loc 1 493 9 view .LVU448
 494:Middlewares/Third_Party/FreeRTOS/Source/timers.c **** 
 1735              		.loc 1 494 5 is_stmt 0 view .LVU449
 1736 0018 2000     		movs	r0, r4
 1737              		@ sp needed
 1738              	.LVL159:
 494:Middlewares/Third_Party/FreeRTOS/Source/timers.c **** 
 1739              		.loc 1 494 5 view .LVU450
 1740 001a 10BD     		pop	{r4, pc}
 1741              	.LVL160:
 1742              	.L130:
 477:Middlewares/Third_Party/FreeRTOS/Source/timers.c ****         taskENTER_CRITICAL();
 1743              		.loc 1 477 9 is_stmt 1 discriminator 1 view .LVU451
 1744              		.syntax divided
 1745              	@ 477 "Middlewares/Third_Party/FreeRTOS/Source/timers.c" 1
 1746 001c 72B6     		 cpsid i 
 1747              	@ 0 "" 2
 1748              		.thumb
 1749              		.syntax unified
 1750              	.L127:
 477:Middlewares/Third_Party/FreeRTOS/Source/timers.c ****         taskENTER_CRITICAL();
 1751              		.loc 1 477 9 discriminator 3 view .LVU452
 477:Middlewares/Third_Party/FreeRTOS/Source/timers.c ****         taskENTER_CRITICAL();
 1752              		.loc 1 477 9 discriminator 3 view .LVU453
 1753 001e FEE7     		b	.L127
 1754              	.LVL161:
 1755              	.L129:
 488:Middlewares/Third_Party/FreeRTOS/Source/timers.c ****             }
 1756              		.loc 1 488 25 is_stmt 0 view .LVU454
 1757 0020 0124     		movs	r4, #1
 1758              	.LVL162:
 488:Middlewares/Third_Party/FreeRTOS/Source/timers.c ****             }
 1759              		.loc 1 488 25 view .LVU455
 1760 0022 F7E7     		b	.L128
 1761              		.cfi_endproc
 1762              	.LFE8:
 1764              		.section	.text.uxTimerGetReloadMode,"ax",%progbits
 1765              		.align	1
 1766              		.global	uxTimerGetReloadMode
 1767              		.syntax unified
 1768              		.code	16
 1769              		.thumb_func
 1771              	uxTimerGetReloadMode:
 1772              	.LVL163:
 1773              	.LFB9:
 497:Middlewares/Third_Party/FreeRTOS/Source/timers.c ****         return ( UBaseType_t ) xTimerGetReloadMode( xTimer );
 1774              		.loc 1 497 5 is_stmt 1 view -0
 1775              		.cfi_startproc
 1776              		@ args = 0, pretend = 0, frame = 0
 1777              		@ frame_needed = 0, uses_anonymous_args = 0
 497:Middlewares/Third_Party/FreeRTOS/Source/timers.c ****         return ( UBaseType_t ) xTimerGetReloadMode( xTimer );
 1778              		.loc 1 497 5 is_stmt 0 view .LVU457
 1779 0000 10B5     		push	{r4, lr}
 1780              	.LCFI25:
 1781              		.cfi_def_cfa_offset 8
ARM GAS  C:\Users\Yasi\AppData\Local\Temp\ccUhEIlv.s 			page 56


 1782              		.cfi_offset 4, -8
 1783              		.cfi_offset 14, -4
 498:Middlewares/Third_Party/FreeRTOS/Source/timers.c ****     }
 1784              		.loc 1 498 9 is_stmt 1 view .LVU458
 498:Middlewares/Third_Party/FreeRTOS/Source/timers.c ****     }
 1785              		.loc 1 498 32 is_stmt 0 view .LVU459
 1786 0002 FFF7FEFF 		bl	xTimerGetReloadMode
 1787              	.LVL164:
 499:Middlewares/Third_Party/FreeRTOS/Source/timers.c **** /*-----------------------------------------------------------*/
 1788              		.loc 1 499 5 view .LVU460
 1789              		@ sp needed
 1790 0006 10BD     		pop	{r4, pc}
 1791              		.cfi_endproc
 1792              	.LFE9:
 1794              		.section	.text.xTimerGetExpiryTime,"ax",%progbits
 1795              		.align	1
 1796              		.global	xTimerGetExpiryTime
 1797              		.syntax unified
 1798              		.code	16
 1799              		.thumb_func
 1801              	xTimerGetExpiryTime:
 1802              	.LVL165:
 1803              	.LFB10:
 503:Middlewares/Third_Party/FreeRTOS/Source/timers.c ****         Timer_t * pxTimer = xTimer;
 1804              		.loc 1 503 5 is_stmt 1 view -0
 1805              		.cfi_startproc
 1806              		@ args = 0, pretend = 0, frame = 0
 1807              		@ frame_needed = 0, uses_anonymous_args = 0
 1808              		@ link register save eliminated.
 504:Middlewares/Third_Party/FreeRTOS/Source/timers.c ****         TickType_t xReturn;
 1809              		.loc 1 504 9 view .LVU462
 505:Middlewares/Third_Party/FreeRTOS/Source/timers.c **** 
 1810              		.loc 1 505 9 view .LVU463
 507:Middlewares/Third_Party/FreeRTOS/Source/timers.c ****         xReturn = listGET_LIST_ITEM_VALUE( &( pxTimer->xTimerListItem ) );
 1811              		.loc 1 507 9 view .LVU464
 1812 0000 0028     		cmp	r0, #0
 1813 0002 01D0     		beq	.L135
 507:Middlewares/Third_Party/FreeRTOS/Source/timers.c ****         xReturn = listGET_LIST_ITEM_VALUE( &( pxTimer->xTimerListItem ) );
 1814              		.loc 1 507 31 discriminator 2 view .LVU465
 508:Middlewares/Third_Party/FreeRTOS/Source/timers.c ****         return xReturn;
 1815              		.loc 1 508 9 view .LVU466
 508:Middlewares/Third_Party/FreeRTOS/Source/timers.c ****         return xReturn;
 1816              		.loc 1 508 17 is_stmt 0 view .LVU467
 1817 0004 4068     		ldr	r0, [r0, #4]
 1818              	.LVL166:
 509:Middlewares/Third_Party/FreeRTOS/Source/timers.c ****     }
 1819              		.loc 1 509 9 is_stmt 1 view .LVU468
 510:Middlewares/Third_Party/FreeRTOS/Source/timers.c **** /*-----------------------------------------------------------*/
 1820              		.loc 1 510 5 is_stmt 0 view .LVU469
 1821              		@ sp needed
 1822 0006 7047     		bx	lr
 1823              	.LVL167:
 1824              	.L135:
 507:Middlewares/Third_Party/FreeRTOS/Source/timers.c ****         xReturn = listGET_LIST_ITEM_VALUE( &( pxTimer->xTimerListItem ) );
 1825              		.loc 1 507 9 is_stmt 1 discriminator 1 view .LVU470
 1826              		.syntax divided
 1827              	@ 507 "Middlewares/Third_Party/FreeRTOS/Source/timers.c" 1
ARM GAS  C:\Users\Yasi\AppData\Local\Temp\ccUhEIlv.s 			page 57


 1828 0008 72B6     		 cpsid i 
 1829              	@ 0 "" 2
 1830              		.thumb
 1831              		.syntax unified
 1832              	.L134:
 507:Middlewares/Third_Party/FreeRTOS/Source/timers.c ****         xReturn = listGET_LIST_ITEM_VALUE( &( pxTimer->xTimerListItem ) );
 1833              		.loc 1 507 9 discriminator 3 view .LVU471
 507:Middlewares/Third_Party/FreeRTOS/Source/timers.c ****         xReturn = listGET_LIST_ITEM_VALUE( &( pxTimer->xTimerListItem ) );
 1834              		.loc 1 507 9 discriminator 3 view .LVU472
 1835 000a FEE7     		b	.L134
 1836              		.cfi_endproc
 1837              	.LFE10:
 1839              		.section	.text.pcTimerGetName,"ax",%progbits
 1840              		.align	1
 1841              		.global	pcTimerGetName
 1842              		.syntax unified
 1843              		.code	16
 1844              		.thumb_func
 1846              	pcTimerGetName:
 1847              	.LVL168:
 1848              	.LFB11:
 514:Middlewares/Third_Party/FreeRTOS/Source/timers.c ****         Timer_t * pxTimer = xTimer;
 1849              		.loc 1 514 5 view -0
 1850              		.cfi_startproc
 1851              		@ args = 0, pretend = 0, frame = 0
 1852              		@ frame_needed = 0, uses_anonymous_args = 0
 1853              		@ link register save eliminated.
 515:Middlewares/Third_Party/FreeRTOS/Source/timers.c **** 
 1854              		.loc 1 515 9 view .LVU474
 517:Middlewares/Third_Party/FreeRTOS/Source/timers.c ****         return pxTimer->pcTimerName;
 1855              		.loc 1 517 9 view .LVU475
 1856 0000 0028     		cmp	r0, #0
 1857 0002 01D0     		beq	.L139
 517:Middlewares/Third_Party/FreeRTOS/Source/timers.c ****         return pxTimer->pcTimerName;
 1858              		.loc 1 517 31 discriminator 2 view .LVU476
 518:Middlewares/Third_Party/FreeRTOS/Source/timers.c ****     }
 1859              		.loc 1 518 9 view .LVU477
 518:Middlewares/Third_Party/FreeRTOS/Source/timers.c ****     }
 1860              		.loc 1 518 23 is_stmt 0 discriminator 1 view .LVU478
 1861 0004 0068     		ldr	r0, [r0]
 1862              	.LVL169:
 519:Middlewares/Third_Party/FreeRTOS/Source/timers.c **** /*-----------------------------------------------------------*/
 1863              		.loc 1 519 5 view .LVU479
 1864              		@ sp needed
 1865 0006 7047     		bx	lr
 1866              	.LVL170:
 1867              	.L139:
 517:Middlewares/Third_Party/FreeRTOS/Source/timers.c ****         return pxTimer->pcTimerName;
 1868              		.loc 1 517 9 is_stmt 1 discriminator 1 view .LVU480
 1869              		.syntax divided
 1870              	@ 517 "Middlewares/Third_Party/FreeRTOS/Source/timers.c" 1
 1871 0008 72B6     		 cpsid i 
 1872              	@ 0 "" 2
 1873              		.thumb
 1874              		.syntax unified
 1875              	.L138:
 517:Middlewares/Third_Party/FreeRTOS/Source/timers.c ****         return pxTimer->pcTimerName;
ARM GAS  C:\Users\Yasi\AppData\Local\Temp\ccUhEIlv.s 			page 58


 1876              		.loc 1 517 9 discriminator 3 view .LVU481
 517:Middlewares/Third_Party/FreeRTOS/Source/timers.c ****         return pxTimer->pcTimerName;
 1877              		.loc 1 517 9 discriminator 3 view .LVU482
 1878 000a FEE7     		b	.L138
 1879              		.cfi_endproc
 1880              	.LFE11:
 1882              		.section	.text.xTimerIsTimerActive,"ax",%progbits
 1883              		.align	1
 1884              		.global	xTimerIsTimerActive
 1885              		.syntax unified
 1886              		.code	16
 1887              		.thumb_func
 1889              	xTimerIsTimerActive:
 1890              	.LVL171:
 1891              	.LFB22:
 982:Middlewares/Third_Party/FreeRTOS/Source/timers.c **** /*-----------------------------------------------------------*/
 983:Middlewares/Third_Party/FreeRTOS/Source/timers.c **** 
 984:Middlewares/Third_Party/FreeRTOS/Source/timers.c ****     BaseType_t xTimerIsTimerActive( TimerHandle_t xTimer )
 985:Middlewares/Third_Party/FreeRTOS/Source/timers.c ****     {
 1892              		.loc 1 985 5 view -0
 1893              		.cfi_startproc
 1894              		@ args = 0, pretend = 0, frame = 0
 1895              		@ frame_needed = 0, uses_anonymous_args = 0
 1896              		.loc 1 985 5 is_stmt 0 view .LVU484
 1897 0000 10B5     		push	{r4, lr}
 1898              	.LCFI26:
 1899              		.cfi_def_cfa_offset 8
 1900              		.cfi_offset 4, -8
 1901              		.cfi_offset 14, -4
 1902 0002 041E     		subs	r4, r0, #0
 986:Middlewares/Third_Party/FreeRTOS/Source/timers.c ****         BaseType_t xReturn;
 1903              		.loc 1 986 9 is_stmt 1 view .LVU485
 987:Middlewares/Third_Party/FreeRTOS/Source/timers.c ****         Timer_t * pxTimer = xTimer;
 1904              		.loc 1 987 9 view .LVU486
 1905              	.LVL172:
 988:Middlewares/Third_Party/FreeRTOS/Source/timers.c **** 
 989:Middlewares/Third_Party/FreeRTOS/Source/timers.c ****         configASSERT( xTimer );
 1906              		.loc 1 989 9 view .LVU487
 1907 0004 0AD0     		beq	.L145
 1908              		.loc 1 989 31 discriminator 2 view .LVU488
 990:Middlewares/Third_Party/FreeRTOS/Source/timers.c **** 
 991:Middlewares/Third_Party/FreeRTOS/Source/timers.c ****         /* Is the timer in the list of active timers? */
 992:Middlewares/Third_Party/FreeRTOS/Source/timers.c ****         taskENTER_CRITICAL();
 1909              		.loc 1 992 9 view .LVU489
 1910 0006 FFF7FEFF 		bl	vPortEnterCritical
 1911              	.LVL173:
 993:Middlewares/Third_Party/FreeRTOS/Source/timers.c ****         {
 994:Middlewares/Third_Party/FreeRTOS/Source/timers.c ****             if( ( pxTimer->ucStatus & tmrSTATUS_IS_ACTIVE ) == 0 )
 1912              		.loc 1 994 13 view .LVU490
 1913              		.loc 1 994 26 is_stmt 0 view .LVU491
 1914 000a 2823     		movs	r3, #40
 1915 000c E35C     		ldrb	r3, [r4, r3]
 1916              		.loc 1 994 15 view .LVU492
 1917 000e DB07     		lsls	r3, r3, #31
 1918 0010 06D4     		bmi	.L144
 995:Middlewares/Third_Party/FreeRTOS/Source/timers.c ****             {
 996:Middlewares/Third_Party/FreeRTOS/Source/timers.c ****                 xReturn = pdFALSE;
ARM GAS  C:\Users\Yasi\AppData\Local\Temp\ccUhEIlv.s 			page 59


 1919              		.loc 1 996 25 view .LVU493
 1920 0012 0024     		movs	r4, #0
 1921              	.LVL174:
 1922              	.L143:
 997:Middlewares/Third_Party/FreeRTOS/Source/timers.c ****             }
 998:Middlewares/Third_Party/FreeRTOS/Source/timers.c ****             else
 999:Middlewares/Third_Party/FreeRTOS/Source/timers.c ****             {
1000:Middlewares/Third_Party/FreeRTOS/Source/timers.c ****                 xReturn = pdTRUE;
1001:Middlewares/Third_Party/FreeRTOS/Source/timers.c ****             }
1002:Middlewares/Third_Party/FreeRTOS/Source/timers.c ****         }
1003:Middlewares/Third_Party/FreeRTOS/Source/timers.c ****         taskEXIT_CRITICAL();
 1923              		.loc 1 1003 9 is_stmt 1 view .LVU494
 1924 0014 FFF7FEFF 		bl	vPortExitCritical
 1925              	.LVL175:
1004:Middlewares/Third_Party/FreeRTOS/Source/timers.c **** 
1005:Middlewares/Third_Party/FreeRTOS/Source/timers.c ****         return xReturn;
 1926              		.loc 1 1005 9 view .LVU495
1006:Middlewares/Third_Party/FreeRTOS/Source/timers.c ****     } /*lint !e818 Can't be pointer to const due to the typedef. */
 1927              		.loc 1 1006 5 is_stmt 0 view .LVU496
 1928 0018 2000     		movs	r0, r4
 1929              		@ sp needed
 1930              	.LVL176:
 1931              		.loc 1 1006 5 view .LVU497
 1932 001a 10BD     		pop	{r4, pc}
 1933              	.LVL177:
 1934              	.L145:
 989:Middlewares/Third_Party/FreeRTOS/Source/timers.c **** 
 1935              		.loc 1 989 9 is_stmt 1 discriminator 1 view .LVU498
 1936              		.syntax divided
 1937              	@ 989 "Middlewares/Third_Party/FreeRTOS/Source/timers.c" 1
 1938 001c 72B6     		 cpsid i 
 1939              	@ 0 "" 2
 1940              		.thumb
 1941              		.syntax unified
 1942              	.L142:
 989:Middlewares/Third_Party/FreeRTOS/Source/timers.c **** 
 1943              		.loc 1 989 9 discriminator 3 view .LVU499
 989:Middlewares/Third_Party/FreeRTOS/Source/timers.c **** 
 1944              		.loc 1 989 9 discriminator 3 view .LVU500
 1945 001e FEE7     		b	.L142
 1946              	.LVL178:
 1947              	.L144:
1000:Middlewares/Third_Party/FreeRTOS/Source/timers.c ****             }
 1948              		.loc 1 1000 25 is_stmt 0 view .LVU501
 1949 0020 0124     		movs	r4, #1
 1950              	.LVL179:
1000:Middlewares/Third_Party/FreeRTOS/Source/timers.c ****             }
 1951              		.loc 1 1000 25 view .LVU502
 1952 0022 F7E7     		b	.L143
 1953              		.cfi_endproc
 1954              	.LFE22:
 1956              		.section	.text.pvTimerGetTimerID,"ax",%progbits
 1957              		.align	1
 1958              		.global	pvTimerGetTimerID
 1959              		.syntax unified
 1960              		.code	16
 1961              		.thumb_func
ARM GAS  C:\Users\Yasi\AppData\Local\Temp\ccUhEIlv.s 			page 60


 1963              	pvTimerGetTimerID:
 1964              	.LVL180:
 1965              	.LFB23:
1007:Middlewares/Third_Party/FreeRTOS/Source/timers.c **** /*-----------------------------------------------------------*/
1008:Middlewares/Third_Party/FreeRTOS/Source/timers.c **** 
1009:Middlewares/Third_Party/FreeRTOS/Source/timers.c ****     void * pvTimerGetTimerID( const TimerHandle_t xTimer )
1010:Middlewares/Third_Party/FreeRTOS/Source/timers.c ****     {
 1966              		.loc 1 1010 5 is_stmt 1 view -0
 1967              		.cfi_startproc
 1968              		@ args = 0, pretend = 0, frame = 0
 1969              		@ frame_needed = 0, uses_anonymous_args = 0
 1970              		.loc 1 1010 5 is_stmt 0 view .LVU504
 1971 0000 10B5     		push	{r4, lr}
 1972              	.LCFI27:
 1973              		.cfi_def_cfa_offset 8
 1974              		.cfi_offset 4, -8
 1975              		.cfi_offset 14, -4
 1976 0002 041E     		subs	r4, r0, #0
1011:Middlewares/Third_Party/FreeRTOS/Source/timers.c ****         Timer_t * const pxTimer = xTimer;
 1977              		.loc 1 1011 9 is_stmt 1 view .LVU505
 1978              	.LVL181:
1012:Middlewares/Third_Party/FreeRTOS/Source/timers.c ****         void * pvReturn;
 1979              		.loc 1 1012 9 view .LVU506
1013:Middlewares/Third_Party/FreeRTOS/Source/timers.c **** 
1014:Middlewares/Third_Party/FreeRTOS/Source/timers.c ****         configASSERT( xTimer );
 1980              		.loc 1 1014 9 view .LVU507
 1981 0004 06D0     		beq	.L149
 1982              		.loc 1 1014 31 discriminator 2 view .LVU508
1015:Middlewares/Third_Party/FreeRTOS/Source/timers.c **** 
1016:Middlewares/Third_Party/FreeRTOS/Source/timers.c ****         taskENTER_CRITICAL();
 1983              		.loc 1 1016 9 view .LVU509
 1984 0006 FFF7FEFF 		bl	vPortEnterCritical
 1985              	.LVL182:
1017:Middlewares/Third_Party/FreeRTOS/Source/timers.c ****         {
1018:Middlewares/Third_Party/FreeRTOS/Source/timers.c ****             pvReturn = pxTimer->pvTimerID;
 1986              		.loc 1 1018 13 view .LVU510
 1987              		.loc 1 1018 22 is_stmt 0 view .LVU511
 1988 000a E469     		ldr	r4, [r4, #28]
 1989              	.LVL183:
1019:Middlewares/Third_Party/FreeRTOS/Source/timers.c ****         }
1020:Middlewares/Third_Party/FreeRTOS/Source/timers.c ****         taskEXIT_CRITICAL();
 1990              		.loc 1 1020 9 is_stmt 1 view .LVU512
 1991 000c FFF7FEFF 		bl	vPortExitCritical
 1992              	.LVL184:
1021:Middlewares/Third_Party/FreeRTOS/Source/timers.c **** 
1022:Middlewares/Third_Party/FreeRTOS/Source/timers.c ****         return pvReturn;
 1993              		.loc 1 1022 9 view .LVU513
1023:Middlewares/Third_Party/FreeRTOS/Source/timers.c ****     }
 1994              		.loc 1 1023 5 is_stmt 0 view .LVU514
 1995 0010 2000     		movs	r0, r4
 1996              		@ sp needed
 1997              	.LVL185:
 1998              		.loc 1 1023 5 view .LVU515
 1999 0012 10BD     		pop	{r4, pc}
 2000              	.LVL186:
 2001              	.L149:
1014:Middlewares/Third_Party/FreeRTOS/Source/timers.c **** 
ARM GAS  C:\Users\Yasi\AppData\Local\Temp\ccUhEIlv.s 			page 61


 2002              		.loc 1 1014 9 is_stmt 1 discriminator 1 view .LVU516
 2003              		.syntax divided
 2004              	@ 1014 "Middlewares/Third_Party/FreeRTOS/Source/timers.c" 1
 2005 0014 72B6     		 cpsid i 
 2006              	@ 0 "" 2
 2007              		.thumb
 2008              		.syntax unified
 2009              	.L148:
1014:Middlewares/Third_Party/FreeRTOS/Source/timers.c **** 
 2010              		.loc 1 1014 9 discriminator 3 view .LVU517
1014:Middlewares/Third_Party/FreeRTOS/Source/timers.c **** 
 2011              		.loc 1 1014 9 discriminator 3 view .LVU518
 2012 0016 FEE7     		b	.L148
 2013              		.cfi_endproc
 2014              	.LFE23:
 2016              		.section	.text.vTimerSetTimerID,"ax",%progbits
 2017              		.align	1
 2018              		.global	vTimerSetTimerID
 2019              		.syntax unified
 2020              		.code	16
 2021              		.thumb_func
 2023              	vTimerSetTimerID:
 2024              	.LVL187:
 2025              	.LFB24:
1024:Middlewares/Third_Party/FreeRTOS/Source/timers.c **** /*-----------------------------------------------------------*/
1025:Middlewares/Third_Party/FreeRTOS/Source/timers.c **** 
1026:Middlewares/Third_Party/FreeRTOS/Source/timers.c ****     void vTimerSetTimerID( TimerHandle_t xTimer,
1027:Middlewares/Third_Party/FreeRTOS/Source/timers.c ****                            void * pvNewID )
1028:Middlewares/Third_Party/FreeRTOS/Source/timers.c ****     {
 2026              		.loc 1 1028 5 view -0
 2027              		.cfi_startproc
 2028              		@ args = 0, pretend = 0, frame = 0
 2029              		@ frame_needed = 0, uses_anonymous_args = 0
 2030              		.loc 1 1028 5 is_stmt 0 view .LVU520
 2031 0000 70B5     		push	{r4, r5, r6, lr}
 2032              	.LCFI28:
 2033              		.cfi_def_cfa_offset 16
 2034              		.cfi_offset 4, -16
 2035              		.cfi_offset 5, -12
 2036              		.cfi_offset 6, -8
 2037              		.cfi_offset 14, -4
 2038 0002 0400     		movs	r4, r0
 2039 0004 0D00     		movs	r5, r1
1029:Middlewares/Third_Party/FreeRTOS/Source/timers.c ****         Timer_t * const pxTimer = xTimer;
 2040              		.loc 1 1029 9 is_stmt 1 view .LVU521
 2041              	.LVL188:
1030:Middlewares/Third_Party/FreeRTOS/Source/timers.c **** 
1031:Middlewares/Third_Party/FreeRTOS/Source/timers.c ****         configASSERT( xTimer );
 2042              		.loc 1 1031 9 view .LVU522
 2043 0006 0028     		cmp	r0, #0
 2044 0008 05D0     		beq	.L153
 2045              		.loc 1 1031 31 discriminator 2 view .LVU523
1032:Middlewares/Third_Party/FreeRTOS/Source/timers.c **** 
1033:Middlewares/Third_Party/FreeRTOS/Source/timers.c ****         taskENTER_CRITICAL();
 2046              		.loc 1 1033 9 view .LVU524
 2047 000a FFF7FEFF 		bl	vPortEnterCritical
 2048              	.LVL189:
ARM GAS  C:\Users\Yasi\AppData\Local\Temp\ccUhEIlv.s 			page 62


1034:Middlewares/Third_Party/FreeRTOS/Source/timers.c ****         {
1035:Middlewares/Third_Party/FreeRTOS/Source/timers.c ****             pxTimer->pvTimerID = pvNewID;
 2049              		.loc 1 1035 13 view .LVU525
 2050              		.loc 1 1035 32 is_stmt 0 view .LVU526
 2051 000e E561     		str	r5, [r4, #28]
1036:Middlewares/Third_Party/FreeRTOS/Source/timers.c ****         }
1037:Middlewares/Third_Party/FreeRTOS/Source/timers.c ****         taskEXIT_CRITICAL();
 2052              		.loc 1 1037 9 is_stmt 1 view .LVU527
 2053 0010 FFF7FEFF 		bl	vPortExitCritical
 2054              	.LVL190:
1038:Middlewares/Third_Party/FreeRTOS/Source/timers.c ****     }
 2055              		.loc 1 1038 5 is_stmt 0 view .LVU528
 2056              		@ sp needed
 2057              	.LVL191:
 2058              	.LVL192:
 2059              		.loc 1 1038 5 view .LVU529
 2060 0014 70BD     		pop	{r4, r5, r6, pc}
 2061              	.LVL193:
 2062              	.L153:
1031:Middlewares/Third_Party/FreeRTOS/Source/timers.c **** 
 2063              		.loc 1 1031 9 is_stmt 1 discriminator 1 view .LVU530
 2064              		.syntax divided
 2065              	@ 1031 "Middlewares/Third_Party/FreeRTOS/Source/timers.c" 1
 2066 0016 72B6     		 cpsid i 
 2067              	@ 0 "" 2
 2068              		.thumb
 2069              		.syntax unified
 2070              	.L152:
1031:Middlewares/Third_Party/FreeRTOS/Source/timers.c **** 
 2071              		.loc 1 1031 9 discriminator 3 view .LVU531
1031:Middlewares/Third_Party/FreeRTOS/Source/timers.c **** 
 2072              		.loc 1 1031 9 discriminator 3 view .LVU532
 2073 0018 FEE7     		b	.L152
 2074              		.cfi_endproc
 2075              	.LFE24:
 2077              		.section	.text.xTimerPendFunctionCallFromISR,"ax",%progbits
 2078              		.align	1
 2079              		.global	xTimerPendFunctionCallFromISR
 2080              		.syntax unified
 2081              		.code	16
 2082              		.thumb_func
 2084              	xTimerPendFunctionCallFromISR:
 2085              	.LVL194:
 2086              	.LFB25:
1039:Middlewares/Third_Party/FreeRTOS/Source/timers.c **** /*-----------------------------------------------------------*/
1040:Middlewares/Third_Party/FreeRTOS/Source/timers.c **** 
1041:Middlewares/Third_Party/FreeRTOS/Source/timers.c ****     #if ( INCLUDE_xTimerPendFunctionCall == 1 )
1042:Middlewares/Third_Party/FreeRTOS/Source/timers.c **** 
1043:Middlewares/Third_Party/FreeRTOS/Source/timers.c ****         BaseType_t xTimerPendFunctionCallFromISR( PendedFunction_t xFunctionToPend,
1044:Middlewares/Third_Party/FreeRTOS/Source/timers.c ****                                                   void * pvParameter1,
1045:Middlewares/Third_Party/FreeRTOS/Source/timers.c ****                                                   uint32_t ulParameter2,
1046:Middlewares/Third_Party/FreeRTOS/Source/timers.c ****                                                   BaseType_t * pxHigherPriorityTaskWoken )
1047:Middlewares/Third_Party/FreeRTOS/Source/timers.c ****         {
 2087              		.loc 1 1047 9 view -0
 2088              		.cfi_startproc
 2089              		@ args = 0, pretend = 0, frame = 16
 2090              		@ frame_needed = 0, uses_anonymous_args = 0
ARM GAS  C:\Users\Yasi\AppData\Local\Temp\ccUhEIlv.s 			page 63


 2091              		.loc 1 1047 9 is_stmt 0 view .LVU534
 2092 0000 10B5     		push	{r4, lr}
 2093              	.LCFI29:
 2094              		.cfi_def_cfa_offset 8
 2095              		.cfi_offset 4, -8
 2096              		.cfi_offset 14, -4
 2097 0002 84B0     		sub	sp, sp, #16
 2098              	.LCFI30:
 2099              		.cfi_def_cfa_offset 24
 2100 0004 1400     		movs	r4, r2
 2101 0006 1A00     		movs	r2, r3
 2102              	.LVL195:
1048:Middlewares/Third_Party/FreeRTOS/Source/timers.c ****             DaemonTaskMessage_t xMessage;
 2103              		.loc 1 1048 13 is_stmt 1 view .LVU535
1049:Middlewares/Third_Party/FreeRTOS/Source/timers.c ****             BaseType_t xReturn;
 2104              		.loc 1 1049 13 view .LVU536
1050:Middlewares/Third_Party/FreeRTOS/Source/timers.c **** 
1051:Middlewares/Third_Party/FreeRTOS/Source/timers.c ****             /* Complete the message with the function parameters and post it to the
1052:Middlewares/Third_Party/FreeRTOS/Source/timers.c ****              * daemon task. */
1053:Middlewares/Third_Party/FreeRTOS/Source/timers.c ****             xMessage.xMessageID = tmrCOMMAND_EXECUTE_CALLBACK_FROM_ISR;
 2105              		.loc 1 1053 13 view .LVU537
 2106              		.loc 1 1053 33 is_stmt 0 view .LVU538
 2107 0008 0223     		movs	r3, #2
 2108              	.LVL196:
 2109              		.loc 1 1053 33 view .LVU539
 2110 000a 5B42     		rsbs	r3, r3, #0
 2111 000c 0093     		str	r3, [sp]
1054:Middlewares/Third_Party/FreeRTOS/Source/timers.c ****             xMessage.u.xCallbackParameters.pxCallbackFunction = xFunctionToPend;
 2112              		.loc 1 1054 13 is_stmt 1 view .LVU540
 2113              		.loc 1 1054 63 is_stmt 0 view .LVU541
 2114 000e 0190     		str	r0, [sp, #4]
1055:Middlewares/Third_Party/FreeRTOS/Source/timers.c ****             xMessage.u.xCallbackParameters.pvParameter1 = pvParameter1;
 2115              		.loc 1 1055 13 is_stmt 1 view .LVU542
 2116              		.loc 1 1055 57 is_stmt 0 view .LVU543
 2117 0010 0291     		str	r1, [sp, #8]
1056:Middlewares/Third_Party/FreeRTOS/Source/timers.c ****             xMessage.u.xCallbackParameters.ulParameter2 = ulParameter2;
 2118              		.loc 1 1056 13 is_stmt 1 view .LVU544
 2119              		.loc 1 1056 57 is_stmt 0 view .LVU545
 2120 0012 0394     		str	r4, [sp, #12]
1057:Middlewares/Third_Party/FreeRTOS/Source/timers.c **** 
1058:Middlewares/Third_Party/FreeRTOS/Source/timers.c ****             xReturn = xQueueSendFromISR( xTimerQueue, &xMessage, pxHigherPriorityTaskWoken );
 2121              		.loc 1 1058 13 is_stmt 1 view .LVU546
 2122              		.loc 1 1058 23 is_stmt 0 view .LVU547
 2123 0014 034B     		ldr	r3, .L155
 2124 0016 1868     		ldr	r0, [r3]
 2125              	.LVL197:
 2126              		.loc 1 1058 23 view .LVU548
 2127 0018 0023     		movs	r3, #0
 2128 001a 6946     		mov	r1, sp
 2129              	.LVL198:
 2130              		.loc 1 1058 23 view .LVU549
 2131 001c FFF7FEFF 		bl	xQueueGenericSendFromISR
 2132              	.LVL199:
1059:Middlewares/Third_Party/FreeRTOS/Source/timers.c **** 
1060:Middlewares/Third_Party/FreeRTOS/Source/timers.c ****             tracePEND_FUNC_CALL_FROM_ISR( xFunctionToPend, pvParameter1, ulParameter2, xReturn );
 2133              		.loc 1 1060 97 is_stmt 1 view .LVU550
1061:Middlewares/Third_Party/FreeRTOS/Source/timers.c **** 
ARM GAS  C:\Users\Yasi\AppData\Local\Temp\ccUhEIlv.s 			page 64


1062:Middlewares/Third_Party/FreeRTOS/Source/timers.c ****             return xReturn;
 2134              		.loc 1 1062 13 view .LVU551
1063:Middlewares/Third_Party/FreeRTOS/Source/timers.c ****         }
 2135              		.loc 1 1063 9 is_stmt 0 view .LVU552
 2136 0020 04B0     		add	sp, sp, #16
 2137              		@ sp needed
 2138              	.LVL200:
 2139              		.loc 1 1063 9 view .LVU553
 2140 0022 10BD     		pop	{r4, pc}
 2141              	.L156:
 2142              		.align	2
 2143              	.L155:
 2144 0024 00000000 		.word	xTimerQueue
 2145              		.cfi_endproc
 2146              	.LFE25:
 2148              		.section	.text.xTimerPendFunctionCall,"ax",%progbits
 2149              		.align	1
 2150              		.global	xTimerPendFunctionCall
 2151              		.syntax unified
 2152              		.code	16
 2153              		.thumb_func
 2155              	xTimerPendFunctionCall:
 2156              	.LVL201:
 2157              	.LFB26:
1064:Middlewares/Third_Party/FreeRTOS/Source/timers.c **** 
1065:Middlewares/Third_Party/FreeRTOS/Source/timers.c ****     #endif /* INCLUDE_xTimerPendFunctionCall */
1066:Middlewares/Third_Party/FreeRTOS/Source/timers.c **** /*-----------------------------------------------------------*/
1067:Middlewares/Third_Party/FreeRTOS/Source/timers.c **** 
1068:Middlewares/Third_Party/FreeRTOS/Source/timers.c ****     #if ( INCLUDE_xTimerPendFunctionCall == 1 )
1069:Middlewares/Third_Party/FreeRTOS/Source/timers.c **** 
1070:Middlewares/Third_Party/FreeRTOS/Source/timers.c ****         BaseType_t xTimerPendFunctionCall( PendedFunction_t xFunctionToPend,
1071:Middlewares/Third_Party/FreeRTOS/Source/timers.c ****                                            void * pvParameter1,
1072:Middlewares/Third_Party/FreeRTOS/Source/timers.c ****                                            uint32_t ulParameter2,
1073:Middlewares/Third_Party/FreeRTOS/Source/timers.c ****                                            TickType_t xTicksToWait )
1074:Middlewares/Third_Party/FreeRTOS/Source/timers.c ****         {
 2158              		.loc 1 1074 9 is_stmt 1 view -0
 2159              		.cfi_startproc
 2160              		@ args = 0, pretend = 0, frame = 16
 2161              		@ frame_needed = 0, uses_anonymous_args = 0
 2162              		.loc 1 1074 9 is_stmt 0 view .LVU555
 2163 0000 30B5     		push	{r4, r5, lr}
 2164              	.LCFI31:
 2165              		.cfi_def_cfa_offset 12
 2166              		.cfi_offset 4, -12
 2167              		.cfi_offset 5, -8
 2168              		.cfi_offset 14, -4
 2169 0002 85B0     		sub	sp, sp, #20
 2170              	.LCFI32:
 2171              		.cfi_def_cfa_offset 32
 2172 0004 0400     		movs	r4, r0
 2173 0006 1500     		movs	r5, r2
 2174 0008 1A00     		movs	r2, r3
 2175              	.LVL202:
1075:Middlewares/Third_Party/FreeRTOS/Source/timers.c ****             DaemonTaskMessage_t xMessage;
 2176              		.loc 1 1075 13 is_stmt 1 view .LVU556
1076:Middlewares/Third_Party/FreeRTOS/Source/timers.c ****             BaseType_t xReturn;
 2177              		.loc 1 1076 13 view .LVU557
ARM GAS  C:\Users\Yasi\AppData\Local\Temp\ccUhEIlv.s 			page 65


1077:Middlewares/Third_Party/FreeRTOS/Source/timers.c **** 
1078:Middlewares/Third_Party/FreeRTOS/Source/timers.c ****             /* This function can only be called after a timer has been created or
1079:Middlewares/Third_Party/FreeRTOS/Source/timers.c ****              * after the scheduler has been started because, until then, the timer
1080:Middlewares/Third_Party/FreeRTOS/Source/timers.c ****              * queue does not exist. */
1081:Middlewares/Third_Party/FreeRTOS/Source/timers.c ****             configASSERT( xTimerQueue );
 2178              		.loc 1 1081 13 view .LVU558
 2179 000a 094B     		ldr	r3, .L161
 2180              	.LVL203:
 2181              		.loc 1 1081 13 is_stmt 0 view .LVU559
 2182 000c 1868     		ldr	r0, [r3]
 2183              	.LVL204:
 2184              		.loc 1 1081 13 view .LVU560
 2185 000e 0028     		cmp	r0, #0
 2186 0010 0BD0     		beq	.L160
 2187              		.loc 1 1081 40 is_stmt 1 discriminator 2 view .LVU561
1082:Middlewares/Third_Party/FreeRTOS/Source/timers.c **** 
1083:Middlewares/Third_Party/FreeRTOS/Source/timers.c ****             /* Complete the message with the function parameters and post it to the
1084:Middlewares/Third_Party/FreeRTOS/Source/timers.c ****              * daemon task. */
1085:Middlewares/Third_Party/FreeRTOS/Source/timers.c ****             xMessage.xMessageID = tmrCOMMAND_EXECUTE_CALLBACK;
 2188              		.loc 1 1085 13 view .LVU562
 2189              		.loc 1 1085 33 is_stmt 0 view .LVU563
 2190 0012 0123     		movs	r3, #1
 2191 0014 5B42     		rsbs	r3, r3, #0
 2192 0016 0093     		str	r3, [sp]
1086:Middlewares/Third_Party/FreeRTOS/Source/timers.c ****             xMessage.u.xCallbackParameters.pxCallbackFunction = xFunctionToPend;
 2193              		.loc 1 1086 13 is_stmt 1 view .LVU564
 2194              		.loc 1 1086 63 is_stmt 0 view .LVU565
 2195 0018 0194     		str	r4, [sp, #4]
1087:Middlewares/Third_Party/FreeRTOS/Source/timers.c ****             xMessage.u.xCallbackParameters.pvParameter1 = pvParameter1;
 2196              		.loc 1 1087 13 is_stmt 1 view .LVU566
 2197              		.loc 1 1087 57 is_stmt 0 view .LVU567
 2198 001a 0291     		str	r1, [sp, #8]
1088:Middlewares/Third_Party/FreeRTOS/Source/timers.c ****             xMessage.u.xCallbackParameters.ulParameter2 = ulParameter2;
 2199              		.loc 1 1088 13 is_stmt 1 view .LVU568
 2200              		.loc 1 1088 57 is_stmt 0 view .LVU569
 2201 001c 0395     		str	r5, [sp, #12]
1089:Middlewares/Third_Party/FreeRTOS/Source/timers.c **** 
1090:Middlewares/Third_Party/FreeRTOS/Source/timers.c ****             xReturn = xQueueSendToBack( xTimerQueue, &xMessage, xTicksToWait );
 2202              		.loc 1 1090 13 is_stmt 1 view .LVU570
 2203              		.loc 1 1090 23 is_stmt 0 view .LVU571
 2204 001e 0023     		movs	r3, #0
 2205 0020 6946     		mov	r1, sp
 2206              	.LVL205:
 2207              		.loc 1 1090 23 view .LVU572
 2208 0022 FFF7FEFF 		bl	xQueueGenericSend
 2209              	.LVL206:
1091:Middlewares/Third_Party/FreeRTOS/Source/timers.c **** 
1092:Middlewares/Third_Party/FreeRTOS/Source/timers.c ****             tracePEND_FUNC_CALL( xFunctionToPend, pvParameter1, ulParameter2, xReturn );
 2210              		.loc 1 1092 88 is_stmt 1 view .LVU573
1093:Middlewares/Third_Party/FreeRTOS/Source/timers.c **** 
1094:Middlewares/Third_Party/FreeRTOS/Source/timers.c ****             return xReturn;
 2211              		.loc 1 1094 13 view .LVU574
1095:Middlewares/Third_Party/FreeRTOS/Source/timers.c ****         }
 2212              		.loc 1 1095 9 is_stmt 0 view .LVU575
 2213 0026 05B0     		add	sp, sp, #20
 2214              		@ sp needed
 2215              	.LVL207:
ARM GAS  C:\Users\Yasi\AppData\Local\Temp\ccUhEIlv.s 			page 66


 2216              	.LVL208:
 2217              		.loc 1 1095 9 view .LVU576
 2218 0028 30BD     		pop	{r4, r5, pc}
 2219              	.LVL209:
 2220              	.L160:
1081:Middlewares/Third_Party/FreeRTOS/Source/timers.c **** 
 2221              		.loc 1 1081 13 is_stmt 1 discriminator 1 view .LVU577
 2222              		.syntax divided
 2223              	@ 1081 "Middlewares/Third_Party/FreeRTOS/Source/timers.c" 1
 2224 002a 72B6     		 cpsid i 
 2225              	@ 0 "" 2
 2226              		.thumb
 2227              		.syntax unified
 2228              	.L159:
1081:Middlewares/Third_Party/FreeRTOS/Source/timers.c **** 
 2229              		.loc 1 1081 13 discriminator 3 view .LVU578
1081:Middlewares/Third_Party/FreeRTOS/Source/timers.c **** 
 2230              		.loc 1 1081 13 discriminator 3 view .LVU579
 2231 002c FEE7     		b	.L159
 2232              	.L162:
 2233 002e C046     		.align	2
 2234              	.L161:
 2235 0030 00000000 		.word	xTimerQueue
 2236              		.cfi_endproc
 2237              	.LFE26:
 2239              		.section	.text.uxTimerGetTimerNumber,"ax",%progbits
 2240              		.align	1
 2241              		.global	uxTimerGetTimerNumber
 2242              		.syntax unified
 2243              		.code	16
 2244              		.thumb_func
 2246              	uxTimerGetTimerNumber:
 2247              	.LVL210:
 2248              	.LFB27:
1096:Middlewares/Third_Party/FreeRTOS/Source/timers.c **** 
1097:Middlewares/Third_Party/FreeRTOS/Source/timers.c ****     #endif /* INCLUDE_xTimerPendFunctionCall */
1098:Middlewares/Third_Party/FreeRTOS/Source/timers.c **** /*-----------------------------------------------------------*/
1099:Middlewares/Third_Party/FreeRTOS/Source/timers.c **** 
1100:Middlewares/Third_Party/FreeRTOS/Source/timers.c ****     #if ( configUSE_TRACE_FACILITY == 1 )
1101:Middlewares/Third_Party/FreeRTOS/Source/timers.c **** 
1102:Middlewares/Third_Party/FreeRTOS/Source/timers.c ****         UBaseType_t uxTimerGetTimerNumber( TimerHandle_t xTimer )
1103:Middlewares/Third_Party/FreeRTOS/Source/timers.c ****         {
 2249              		.loc 1 1103 9 view -0
 2250              		.cfi_startproc
 2251              		@ args = 0, pretend = 0, frame = 0
 2252              		@ frame_needed = 0, uses_anonymous_args = 0
 2253              		@ link register save eliminated.
1104:Middlewares/Third_Party/FreeRTOS/Source/timers.c ****             return ( ( Timer_t * ) xTimer )->uxTimerNumber;
 2254              		.loc 1 1104 13 view .LVU581
 2255              		.loc 1 1104 44 is_stmt 0 discriminator 1 view .LVU582
 2256 0000 406A     		ldr	r0, [r0, #36]
 2257              	.LVL211:
1105:Middlewares/Third_Party/FreeRTOS/Source/timers.c ****         }
 2258              		.loc 1 1105 9 view .LVU583
 2259              		@ sp needed
 2260 0002 7047     		bx	lr
 2261              		.cfi_endproc
ARM GAS  C:\Users\Yasi\AppData\Local\Temp\ccUhEIlv.s 			page 67


 2262              	.LFE27:
 2264              		.section	.text.vTimerSetTimerNumber,"ax",%progbits
 2265              		.align	1
 2266              		.global	vTimerSetTimerNumber
 2267              		.syntax unified
 2268              		.code	16
 2269              		.thumb_func
 2271              	vTimerSetTimerNumber:
 2272              	.LVL212:
 2273              	.LFB28:
1106:Middlewares/Third_Party/FreeRTOS/Source/timers.c **** 
1107:Middlewares/Third_Party/FreeRTOS/Source/timers.c ****     #endif /* configUSE_TRACE_FACILITY */
1108:Middlewares/Third_Party/FreeRTOS/Source/timers.c **** /*-----------------------------------------------------------*/
1109:Middlewares/Third_Party/FreeRTOS/Source/timers.c **** 
1110:Middlewares/Third_Party/FreeRTOS/Source/timers.c ****     #if ( configUSE_TRACE_FACILITY == 1 )
1111:Middlewares/Third_Party/FreeRTOS/Source/timers.c **** 
1112:Middlewares/Third_Party/FreeRTOS/Source/timers.c ****         void vTimerSetTimerNumber( TimerHandle_t xTimer,
1113:Middlewares/Third_Party/FreeRTOS/Source/timers.c ****                                    UBaseType_t uxTimerNumber )
1114:Middlewares/Third_Party/FreeRTOS/Source/timers.c ****         {
 2274              		.loc 1 1114 9 is_stmt 1 view -0
 2275              		.cfi_startproc
 2276              		@ args = 0, pretend = 0, frame = 0
 2277              		@ frame_needed = 0, uses_anonymous_args = 0
 2278              		@ link register save eliminated.
1115:Middlewares/Third_Party/FreeRTOS/Source/timers.c ****             ( ( Timer_t * ) xTimer )->uxTimerNumber = uxTimerNumber;
 2279              		.loc 1 1115 13 view .LVU585
 2280              		.loc 1 1115 53 is_stmt 0 view .LVU586
 2281 0000 4162     		str	r1, [r0, #36]
1116:Middlewares/Third_Party/FreeRTOS/Source/timers.c ****         }
 2282              		.loc 1 1116 9 view .LVU587
 2283              		@ sp needed
 2284 0002 7047     		bx	lr
 2285              		.cfi_endproc
 2286              	.LFE28:
 2288              		.section	.bss.xStaticTimerQueue.0,"aw",%nobits
 2289              		.align	2
 2292              	xStaticTimerQueue.0:
 2293 0000 00000000 		.space	80
 2293      00000000 
 2293      00000000 
 2293      00000000 
 2293      00000000 
 2294              		.section	.bss.ucStaticTimerQueueStorage.1,"aw",%nobits
 2295              		.align	2
 2298              	ucStaticTimerQueueStorage.1:
 2299 0000 00000000 		.space	160
 2299      00000000 
 2299      00000000 
 2299      00000000 
 2299      00000000 
 2300              		.section	.bss.xLastTime.2,"aw",%nobits
 2301              		.align	2
 2304              	xLastTime.2:
 2305 0000 00000000 		.space	4
 2306              		.section	.bss.xTimerTaskHandle,"aw",%nobits
 2307              		.align	2
 2310              	xTimerTaskHandle:
ARM GAS  C:\Users\Yasi\AppData\Local\Temp\ccUhEIlv.s 			page 68


 2311 0000 00000000 		.space	4
 2312              		.section	.bss.xTimerQueue,"aw",%nobits
 2313              		.align	2
 2316              	xTimerQueue:
 2317 0000 00000000 		.space	4
 2318              		.section	.bss.pxOverflowTimerList,"aw",%nobits
 2319              		.align	2
 2322              	pxOverflowTimerList:
 2323 0000 00000000 		.space	4
 2324              		.section	.bss.pxCurrentTimerList,"aw",%nobits
 2325              		.align	2
 2328              	pxCurrentTimerList:
 2329 0000 00000000 		.space	4
 2330              		.section	.bss.xActiveTimerList2,"aw",%nobits
 2331              		.align	2
 2334              	xActiveTimerList2:
 2335 0000 00000000 		.space	20
 2335      00000000 
 2335      00000000 
 2335      00000000 
 2335      00000000 
 2336              		.section	.bss.xActiveTimerList1,"aw",%nobits
 2337              		.align	2
 2340              	xActiveTimerList1:
 2341 0000 00000000 		.space	20
 2341      00000000 
 2341      00000000 
 2341      00000000 
 2341      00000000 
 2342              		.text
 2343              	.Letext0:
 2344              		.file 2 "C:/Program Files (x86)/Arm GNU Toolchain arm-none-eabi/13.2 Rel1/lib/gcc/arm-none-eabi/13
 2345              		.file 3 "C:/Program Files (x86)/Arm GNU Toolchain arm-none-eabi/13.2 Rel1/arm-none-eabi/include/ma
 2346              		.file 4 "C:/Program Files (x86)/Arm GNU Toolchain arm-none-eabi/13.2 Rel1/arm-none-eabi/include/sy
 2347              		.file 5 "Middlewares/Third_Party/FreeRTOS/Source/include/projdefs.h"
 2348              		.file 6 "Middlewares/Third_Party/FreeRTOS/Source/portable/GCC/ARM_CM0/portmacro.h"
 2349              		.file 7 "Middlewares/Third_Party/FreeRTOS/Source/include/FreeRTOS.h"
 2350              		.file 8 "Middlewares/Third_Party/FreeRTOS/Source/include/list.h"
 2351              		.file 9 "Middlewares/Third_Party/FreeRTOS/Source/include/task.h"
 2352              		.file 10 "Middlewares/Third_Party/FreeRTOS/Source/include/queue.h"
 2353              		.file 11 "Middlewares/Third_Party/FreeRTOS/Source/include/timers.h"
 2354              		.file 12 "Middlewares/Third_Party/FreeRTOS/Source/include/portable.h"
ARM GAS  C:\Users\Yasi\AppData\Local\Temp\ccUhEIlv.s 			page 69

